

Microchip MPLAB XC8 Assembler V2.20 build 20200408173844 
                                                                                               Wed Sep 16 16:48:34 2020

Microchip MPLAB XC8 C Compiler v2.20 (Free license) build 20200408173844 Og1 
     1                           	processor	18F27K42
     2                           	fnconf	rparam,??,?,0
     3                           	pagewidth 120
     4                           	opt	flic
     5                           	psect	idataCOMRAM,global,class=CODE,delta=1,noexec
     6                           	psect	smallconst,global,reloc=2,class=SMALLCONST,delta=1,noexec
     7                           	psect	nvCOMRAM,global,class=COMRAM,space=1,delta=1,lowdata,noexec
     8                           	psect	cinit,global,reloc=2,class=CODE,delta=1
     9                           	psect	bssCOMRAM,global,class=COMRAM,space=1,delta=1,lowdata,noexec
    10                           	psect	dataCOMRAM,global,class=COMRAM,space=1,delta=1,lowdata,noexec
    11                           	psect	bssBANK0,global,class=BANK0,space=1,delta=1,lowdata,noexec
    12                           	psect	cstackBANK0,global,class=BANK0,space=1,delta=1,lowdata,noexec
    13                           	psect	cstackCOMRAM,global,class=COMRAM,space=1,delta=1,lowdata,noexec
    14                           	psect	text0,global,reloc=2,class=CODE,delta=1
    15                           	psect	text1,global,reloc=2,class=CODE,delta=1
    16                           	psect	text2,global,reloc=2,class=CODE,delta=1
    17                           	psect	text3,global,reloc=2,class=CODE,delta=1
    18                           	psect	text4,global,reloc=2,class=CODE,delta=1
    19                           	psect	text5,global,reloc=2,class=CODE,delta=1
    20                           	psect	text6,global,reloc=2,class=CODE,delta=1
    21                           	psect	text7,global,reloc=2,class=CODE,delta=1
    22                           	psect	text8,global,reloc=2,class=CODE,delta=1,group=1
    23                           	psect	text9,global,reloc=2,class=CODE,delta=1,group=1
    24                           	psect	text10,global,reloc=2,class=CODE,delta=1
    25                           	psect	text11,global,reloc=2,class=CODE,delta=1
    26                           	psect	text12,global,reloc=2,class=CODE,delta=1
    27                           	psect	text13,global,reloc=2,class=CODE,delta=1
    28                           	psect	text14,global,reloc=2,class=CODE,delta=1
    29                           	psect	text15,global,reloc=2,class=CODE,delta=1
    30                           	psect	text16,global,reloc=2,class=CODE,delta=1
    31                           	psect	text17,global,reloc=2,class=CODE,delta=1
    32                           	psect	text18,global,reloc=4,class=CODE,delta=1
    33                           	psect	text19,global,reloc=2,class=CODE,delta=1
    34                           	psect	text20,global,reloc=2,class=CODE,delta=1
    35                           	psect	text21,global,reloc=2,class=CODE,delta=1
    36                           	psect	ivt0x8,global,reloc=2,class=CODE,delta=1,noexec,keep,optim=
    37                           	psect	intsave_regs,global,class=BIGRAM,space=1,delta=1,noexec
    38                           	psect	rparam,global,class=COMRAM,space=1,delta=1,noexec
    39                           	psect	idloc,global,abs,ovrld,class=IDLOC,space=5,delta=1,noexec
    40                           	psect	config,global,abs,ovrld,class=CONFIG,space=4,delta=1,noexec
    41  0000                     
    42                           ; Version 2.20
    43                           ; Generated 12/02/2020 GMT
    44                           ; 
    45                           ; Copyright © 2020, Microchip Technology Inc. and its subsidiaries ("Microchip")
    46                           ; All rights reserved.
    47                           ; 
    48                           ; This software is developed by Microchip Technology Inc. and its subsidiaries ("Microch
      +                          ip").
    49                           ; 
    50                           ; Redistribution and use in source and binary forms, with or without modification, are
    51                           ; permitted provided that the following conditions are met:
    52                           ; 
    53                           ;     1. Redistributions of source code must retain the above copyright notice, this lis
      +                          t of
    54                           ;        conditions and the following disclaimer.
    55                           ; 
    56                           ;     2. Redistributions in binary form must reproduce the above copyright notice, this 
      +                          list
    57                           ;        of conditions and the following disclaimer in the documentation and/or other
    58                           ;        materials provided with the distribution.
    59                           ; 
    60                           ;     3. Microchip's name may not be used to endorse or promote products derived from th
      +                          is
    61                           ;        software without specific prior written permission.
    62                           ; 
    63                           ; THIS SOFTWARE IS PROVIDED BY MICROCHIP "AS IS" AND ANY EXPRESS OR IMPLIED WARRANTIES,
    64                           ; INCLUDING, BUT NOT LIMITED TO, THE IMPLIED WARRANTIES OF MERCHANTABILITY AND FITNESS F
      +                          OR
    65                           ; PURPOSE ARE DISCLAIMED.  IN NO EVENT SHALL MICROCHIP BE LIABLE FOR ANY DIRECT, INDIREC
      +                          T,
    66                           ; INCIDENTAL, SPECIAL, EXEMPLARY, OR CONSEQUENTIAL DAMAGES (INCLUDING BUT NOT LIMITED TO
    67                           ; PROCUREMENT OF SUBSTITUTE GOODS OR SERVICES; LOSS OF USE, DATA OR PROFITS; OR BUSINESS
    68                           ; INTERRUPTION) HOWSOEVER CAUSED AND ON ANY THEORY OF LIABILITY, WHETHER IN CONTRACT, ST
      +                          RICT
    69                           ; LIABILITY, OR TORT (INCLUDING NEGLIGENCE OR OTHERWISE) ARISING IN ANY WAY OUT OF THE U
      +                          SE OF
    70                           ; THIS SOFTWARE, EVEN IF ADVISED OF THE POSSIBILITY OF SUCH DAMAGE.
    71                           ; 
    72                           ; 
    73                           ; Code-generator required, PIC18F27K42 Definitions
    74                           ; 
    75                           ; SFR Addresses
    76  0000                     
    77 ;; Function _handler_command_a is unused but had its address taken
    78  0000                     
    79 ;; Function _handler_command_s is unused but had its address taken
    80  0000                     
    81 ;; Function _handler_command_b is unused but had its address taken
    82  0000                     
    83 ;; Function _handler_command_d is unused but had its address taken
    84  0000                     
    85                           	psect	idataCOMRAM
    86  002880                     __pidataCOMRAM:
    87                           	callstack 0
    88                           
    89                           ;initializer for send_request@F15375
    90  002880  7B                 	db	123
    91  002881  41                 	db	65
    92  002882  7D                 	db	125
    93  002883  00                 	db	0
    94                           
    95                           	psect	smallconst
    96  002000                     __psmallconst:
    97                           	callstack 0
    98  002000  00                 	db	0
    99  002001                     _handlers:
   100                           	callstack 0
   101  002001  61                 	db	97
   102  002002  00                 	db	0
   103  002003  00                 	db	0
   104  002004  00                 	db	0
   105  002005  62                 	db	98
   106  002006  00                 	db	0
   107  002007  00                 	db	0
   108  002008  00                 	db	0
   109  002009  73                 	db	115
   110  00200A  00                 	db	0
   111  00200B  00                 	db	0
   112  00200C  00                 	db	0
   113  00200D  64                 	db	100
   114  00200E  00                 	db	0
   115  00200F  00                 	db	0
   116  002010  00                 	db	0
   117  002011  00                 	db	0
   118  002012  00                 	db	0
   119  002013  00                 	db	0
   120  002014  00                 	db	0
   121  002015                     __end_of_handlers:
   122                           	callstack 0
   123  002015  61                 	db	97	;'a'
   124  002016  00                 	db	0
   125  002017  62                 	db	98	;'b'
   126  002018  00                 	db	0
   127  002019  64                 	db	100	;'d'
   128  00201A  00                 	db	0
   129  00201B  73                 	db	115	;'s'
   130  00201C  00                 	db	0
   131  00201D  00                 	db	0	; dummy byte at the end
   132  0000                     
   133                           	psect	nvCOMRAM
   134  000050                     __pnvCOMRAM:
   135                           	callstack 0
   136  000050                     _timer0ReloadVal16bit:
   137                           	callstack 0
   138  000050                     	ds	2
   139  0000                     _PIR3bits	set	14755
   140  0000                     _PMD7	set	14791
   141  0000                     _PMD6	set	14790
   142  0000                     _PMD5	set	14789
   143  0000                     _PMD4	set	14788
   144  0000                     _PMD3	set	14787
   145  0000                     _PMD2	set	14786
   146  0000                     _PMD1	set	14785
   147  0000                     _PMD0	set	14784
   148  0000                     _OSCTUNE	set	14814
   149  0000                     _OSCFRQ	set	14815
   150  0000                     _OSCEN	set	14813
   151  0000                     _OSCCON3	set	14811
   152  0000                     _OSCCON1	set	14809
   153  0000                     _PIE3bits	set	14739
   154  0000                     _U1RXIF	set	118043
   155  0000                     _U1TXIF	set	118044
   156  0000                     _INLVLE	set	14980
   157  0000                     _INLVLC	set	14948
   158  0000                     _INLVLB	set	14932
   159  0000                     _INLVLA	set	14916
   160  0000                     _SLRCONC	set	14947
   161  0000                     _SLRCONB	set	14931
   162  0000                     _SLRCONA	set	14915
   163  0000                     _ODCONC	set	14946
   164  0000                     _ODCONB	set	14930
   165  0000                     _ODCONA	set	14914
   166  0000                     _RC4I2C	set	14955
   167  0000                     _RC3I2C	set	14954
   168  0000                     _RB2I2C	set	14939
   169  0000                     _RB1I2C	set	14938
   170  0000                     _WPUC	set	14945
   171  0000                     _WPUA	set	14913
   172  0000                     _WPUB	set	14929
   173  0000                     _WPUE	set	14977
   174  0000                     _ANSELA	set	14912
   175  0000                     _ANSELB	set	14928
   176  0000                     _ANSELC	set	14944
   177  0000                     _U1CTSPPS	set	15078
   178  0000                     _U1RXPPS	set	15077
   179  0000                     _RB2PPS	set	14858
   180  0000                     _RC6PPS	set	14870
   181  0000                     _ANSELCbits	set	14944
   182  0000                     _ANSELBbits	set	14928
   183  0000                     _U1CON1bits	set	15859
   184  0000                     _U1CON2bits	set	15860
   185  0000                     _U1BRGH	set	15862
   186  0000                     _U1BRGL	set	15861
   187  0000                     _U1CON0bits	set	15858
   188  0000                     _U1RXB	set	15848
   189  0000                     _U1TXB	set	15850
   190  0000                     _T0CON0bits	set	16312
   191  0000                     _T0CON0	set	16312
   192  0000                     _TMR0L	set	16310
   193  0000                     _TMR0H	set	16311
   194  0000                     _T0CON1	set	16313
   195  0000                     _TRISC	set	16324
   196  0000                     _TRISB	set	16323
   197  0000                     _TRISA	set	16322
   198  0000                     _LATC	set	16316
   199  0000                     _LATB	set	16315
   200  0000                     _LATA	set	16314
   201  0000                     _INTCON0bits	set	16338
   202  0000                     _TRISCbits	set	16324
   203  0000                     _LATCbits	set	16316
   204  0000                     _TRISBbits	set	16323
   205  0000                     _LATBbits	set	16315
   206                           
   207                           ; #config settings
   208                           
   209                           	psect	cinit
   210  002668                     __pcinit:
   211                           	callstack 0
   212  002668                     start_initialization:
   213                           	callstack 0
   214  002668                     __initialization:
   215                           	callstack 0
   216                           
   217                           ; Initialize objects allocated to COMRAM (4 bytes)
   218                           ; load TBLPTR registers with __pidataCOMRAM
   219  002668  0E80               	movlw	low __pidataCOMRAM
   220  00266A  6EF6               	movwf	tblptrl,c
   221  00266C  0E28               	movlw	high __pidataCOMRAM
   222  00266E  6EF7               	movwf	tblptrh,c
   223  002670  0E00               	movlw	low (__pidataCOMRAM shr (0+16))
   224  002672  6EF8               	movwf	tblptru,c
   225  002674  EE00  F04C         	lfsr	0,__pdataCOMRAM
   226  002678  EE10 F004          	lfsr	1,4
   227  00267C                     copy_data0:
   228  00267C  0009               	tblrd		*+
   229  00267E  006F FFD7 FFEE     	movff	tablat,postinc0
   230  002684  50E5               	movf	postdec1,w,c
   231  002686  50E1               	movf	fsr1l,w,c
   232  002688  E1F9               	bnz	copy_data0
   233                           
   234                           ; Clear objects allocated to BANK0 (9 bytes)
   235  00268A  EE00  F060         	lfsr	0,__pbssBANK0
   236  00268E  0E09               	movlw	9
   237  002690                     clear_0:
   238  002690  6AEE               	clrf	postinc0,c
   239  002692  06E8               	decf	wreg,f,c
   240  002694  E1FD               	bnz	clear_0
   241                           
   242                           ; Clear objects allocated to COMRAM (26 bytes)
   243  002696  EE00  F032         	lfsr	0,__pbssCOMRAM
   244  00269A  0E1A               	movlw	26
   245  00269C                     clear_1:
   246  00269C  6AEE               	clrf	postinc0,c
   247  00269E  06E8               	decf	wreg,f,c
   248  0026A0  E1FD               	bnz	clear_1
   249                           
   250                           ;
   251                           ; Setup IVTBASE
   252                           ;
   253  0026A2  0E08               	movlw	(ivt0x8_base shr 0)& (0+255)
   254  0026A4  6ED5               	movwf	213,c
   255  0026A6  0E00               	movlw	(ivt0x8_base shr (0+8))& (0+255)
   256  0026A8  6ED6               	movwf	214,c
   257  0026AA  0E00               	movlw	(ivt0x8_base shr (0+16))& (0+255)
   258  0026AC  6ED7               	movwf	215,c
   259  0026AE                     end_of_initialization:
   260                           	callstack 0
   261  0026AE                     __end_of__initialization:
   262                           	callstack 0
   263  0026AE  0100               	movlb	0
   264  0026B0  EF6D  F011         	goto	_main	;jump to C main() function
   265                           
   266                           	psect	bssCOMRAM
   267  000032                     __pbssCOMRAM:
   268                           	callstack 0
   269  000032                     	ds	8
   270  00003A                     _Handler:
   271                           	callstack 0
   272  00003A                     	ds	4
   273  00003E                     _rx_state:
   274                           	callstack 0
   275  00003E                     	ds	10
   276  000048                     _delay:
   277                           	callstack 0
   278  000048                     	ds	4
   279                           
   280                           	psect	dataCOMRAM
   281  00004C                     __pdataCOMRAM:
   282                           	callstack 0
   283  00004C                     send_request@F15375:
   284                           	callstack 0
   285  00004C                     	ds	4
   286                           
   287                           	psect	bssBANK0
   288  000060                     __pbssBANK0:
   289                           	callstack 0
   290  000060                     	ds	9
   291                           
   292                           	psect	cstackBANK0
   293  000069                     __pcstackBANK0:
   294                           	callstack 0
   295  000069                     	ds	2
   296  00006B                     main@timeout:
   297                           	callstack 0
   298                           
   299                           ; 4 bytes @ 0x2
   300  00006B                     	ds	4
   301                           
   302                           	psect	cstackCOMRAM
   303  000001                     __pcstackCOMRAM:
   304                           	callstack 0
   305  000001                     ?i2_TMR0_ReadTimer:
   306                           	callstack 0
   307  000001                     state_rx_byte@st:
   308                           	callstack 0
   309                           
   310                           ; 2 bytes @ 0x0
   311  000001                     	ds	2
   312  000003                     ??i2_TMR0_ReadTimer:
   313  000003                     state_rx_byte@ch:
   314                           	callstack 0
   315                           
   316                           ; 1 bytes @ 0x2
   317  000003                     	ds	1
   318  000004                     ??_state_rx_byte:
   319                           
   320                           ; 1 bytes @ 0x3
   321  000004                     	ds	1
   322  000005                     i2TMR0_ReadTimer@readVal:
   323                           	callstack 0
   324                           
   325                           ; 2 bytes @ 0x4
   326  000005                     	ds	2
   327  000007                     i2TMR0_ReadTimer@readValLow:
   328                           	callstack 0
   329                           
   330                           ; 1 bytes @ 0x6
   331  000007                     	ds	1
   332  000008                     i2TMR0_ReadTimer@readValHigh:
   333                           	callstack 0
   334                           
   335                           ; 1 bytes @ 0x7
   336  000008                     	ds	1
   337  000009                     i2delay_start@delay:
   338                           	callstack 0
   339                           
   340                           ; 2 bytes @ 0x8
   341  000009                     	ds	2
   342  00000B                     i2delay_start@value:
   343                           	callstack 0
   344                           
   345                           ; 2 bytes @ 0xA
   346  00000B                     	ds	2
   347  00000D                     U1RX_ISR@znak:
   348                           	callstack 0
   349                           
   350                           ; 1 bytes @ 0xC
   351  00000D                     	ds	1
   352  00000E                     ??_TMR0_Initialize:
   353  00000E                     ?_TMR0_ReadTimer:
   354                           	callstack 0
   355  00000E                     ?___lwdiv:
   356                           	callstack 0
   357  00000E                     get_digit@digit:
   358                           	callstack 0
   359  00000E                     state_reset@st:
   360                           	callstack 0
   361  00000E                     state_is_frame_ready@st:
   362                           	callstack 0
   363  00000E                     ___lwdiv@dividend:
   364                           	callstack 0
   365                           
   366                           ; 2 bytes @ 0xD
   367  00000E                     	ds	1
   368  00000F                     get_digit@ch:
   369                           	callstack 0
   370                           
   371                           ; 1 bytes @ 0xE
   372  00000F                     	ds	1
   373  000010                     ??_TMR0_ReadTimer:
   374  000010                     ??_state_reset:
   375  000010                     ___lwdiv@divisor:
   376                           	callstack 0
   377                           
   378                           ; 2 bytes @ 0xF
   379  000010                     	ds	2
   380  000012                     ___lwdiv@counter:
   381                           	callstack 0
   382  000012                     state_reset@i:
   383                           	callstack 0
   384  000012                     TMR0_ReadTimer@readVal:
   385                           	callstack 0
   386                           
   387                           ; 2 bytes @ 0x11
   388  000012                     	ds	1
   389  000013                     ___lwdiv@quotient:
   390                           	callstack 0
   391                           
   392                           ; 2 bytes @ 0x12
   393  000013                     	ds	1
   394  000014                     TMR0_ReadTimer@readValLow:
   395                           	callstack 0
   396                           
   397                           ; 1 bytes @ 0x13
   398  000014                     	ds	1
   399  000015                     ?___lwmod:
   400                           	callstack 0
   401  000015                     TMR0_ReadTimer@readValHigh:
   402                           	callstack 0
   403  000015                     ___lwmod@dividend:
   404                           	callstack 0
   405                           
   406                           ; 2 bytes @ 0x14
   407  000015                     	ds	1
   408  000016                     delay_start@delay:
   409                           	callstack 0
   410  000016                     delay_is_expired@delay:
   411                           	callstack 0
   412                           
   413                           ; 2 bytes @ 0x15
   414  000016                     	ds	1
   415  000017                     ___lwmod@divisor:
   416                           	callstack 0
   417                           
   418                           ; 2 bytes @ 0x16
   419  000017                     	ds	1
   420  000018                     ??_delay_is_expired:
   421  000018                     delay_start@value:
   422                           	callstack 0
   423                           
   424                           ; 2 bytes @ 0x17
   425  000018                     	ds	1
   426  000019                     ___lwmod@counter:
   427                           	callstack 0
   428                           
   429                           ; 1 bytes @ 0x18
   430  000019                     	ds	1
   431  00001A                     
   432                           ; 1 bytes @ 0x19
   433  00001A                     	ds	4
   434  00001E                     delay_is_expired@now:
   435                           	callstack 0
   436                           
   437                           ; 2 bytes @ 0x1D
   438  00001E                     	ds	2
   439  000020                     prints@str:
   440                           	callstack 0
   441                           
   442                           ; 2 bytes @ 0x1F
   443  000020                     	ds	2
   444  000022                     send_request@st:
   445                           	callstack 0
   446  000022                     send_answer@st:
   447                           	callstack 0
   448                           
   449                           ; 2 bytes @ 0x21
   450  000022                     	ds	2
   451  000024                     ??_send_answer:
   452  000024                     send_request@cmd:
   453                           	callstack 0
   454                           
   455                           ; 4 bytes @ 0x23
   456  000024                     	ds	1
   457  000025                     send_answer@cmd:
   458                           	callstack 0
   459                           
   460                           ; 9 bytes @ 0x24
   461  000025                     	ds	9
   462  00002E                     send_answer@num:
   463                           	callstack 0
   464                           
   465                           ; 2 bytes @ 0x2D
   466  00002E                     	ds	2
   467  000030                     ??_main:
   468                           
   469                           ; 1 bytes @ 0x2F
   470  000030                     	ds	2
   471                           
   472 ;;
   473 ;;Main: autosize = 0, tempsize = 2, incstack = 0, save=0
   474 ;;
   475 ;; *************** function _main *****************
   476 ;; Defined at:
   477 ;;		line 283 in file "main.c"
   478 ;; Parameters:    Size  Location     Type
   479 ;;		None
   480 ;; Auto vars:     Size  Location     Type
   481 ;;  timeout         4    2[BANK0 ] struct .
   482 ;;  cnt             2    0        unsigned short 
   483 ;; Return value:  Size  Location     Type
   484 ;;                  1    wreg      void 
   485 ;; Registers used:
   486 ;;		wreg, fsr1l, fsr1h, fsr2l, fsr2h, status,2, status,0, tblptrl, tblptrh, tblptru, prodl, prodh, cstack
   487 ;; Tracked objects:
   488 ;;		On entry : 0/0
   489 ;;		On exit  : 0/0
   490 ;;		Unchanged: 0/0
   491 ;; Data sizes:     COMRAM   BANK0   BANK1   BANK2   BANK3   BANK4   BANK5   BANK6   BANK7   BANK8   BANK9  BANK10  BANK1
      +1  BANK12  BANK13  BANK14  BANK15  BANK16  BANK17  BANK18  BANK19  BANK20  BANK21  BANK22  BANK23  BANK24  BANK25  BANK2
      +6  BANK27  BANK28  BANK29  BANK30  BANK31
   492 ;;      Params:         0       0       0       0       0       0       0       0       0       0       0       0       
      +0       0       0       0       0       0       0       0       0       0       0       0       0       0       0       
      +0       0       0       0       0       0
   493 ;;      Locals:         0       6       0       0       0       0       0       0       0       0       0       0       
      +0       0       0       0       0       0       0       0       0       0       0       0       0       0       0       
      +0       0       0       0       0       0
   494 ;;      Temps:          2       0       0       0       0       0       0       0       0       0       0       0       
      +0       0       0       0       0       0       0       0       0       0       0       0       0       0       0       
      +0       0       0       0       0       0
   495 ;;      Totals:         2       6       0       0       0       0       0       0       0       0       0       0       
      +0       0       0       0       0       0       0       0       0       0       0       0       0       0       0       
      +0       0       0       0       0       0
   496 ;;Total ram usage:        8 bytes
   497 ;; Hardware stack levels required when called:    7
   498 ;; This function calls:
   499 ;;		_SYSTEM_Initialize
   500 ;;		_TMR0_StartTimer
   501 ;;		_delay_is_expired
   502 ;;		_delay_start
   503 ;;		_send_answer
   504 ;;		_send_request
   505 ;;		_state_is_frame_ready
   506 ;;		_state_reset
   507 ;; This function is called by:
   508 ;;		Startup code after reset
   509 ;; This function uses a non-reentrant model
   510 ;;
   511                           
   512                           	psect	text0
   513  0022DA                     __ptext0:
   514                           	callstack 0
   515  0022DA                     _main:
   516                           	callstack 24
   517  0022DA                     
   518                           ;main.c: 285:     SYSTEM_Initialize();
   519  0022DA  EC37  F014         	call	_SYSTEM_Initialize	;wreg free
   520  0022DE                     
   521                           ;main.c: 287:     TRISBbits.TRISB5 = 0;
   522  0022DE  9AC3               	bcf	195,5,c	;volatile
   523  0022E0                     
   524                           ;main.c: 288:     ANSELBbits.ANSELB5 = 0;
   525  0022E0  013A               	movlb	58	; () banked
   526  0022E2  9B50               	bcf	80,5,b	;volatile
   527  0022E4                     
   528                           ; BSR set to: 58
   529                           ;main.c: 289:     LATBbits.LATB5 = 1;
   530  0022E4  8ABB               	bsf	187,5,c	;volatile
   531  0022E6                     
   532                           ; BSR set to: 58
   533                           ;main.c: 291:     U1CON0bits.MODE = 0;
   534  0022E6  0EF0               	movlw	-16
   535  0022E8  013D               	movlb	61	; () banked
   536  0022EA  17F2               	andwf	242,f,b	;volatile
   537  0022EC                     
   538                           ; BSR set to: 61
   539                           ;main.c: 292:     U1BRGL = (1666) & 0xFF;
   540  0022EC  0E82               	movlw	130
   541  0022EE  6FF5               	movwf	245,b	;volatile
   542  0022F0                     
   543                           ; BSR set to: 61
   544                           ;main.c: 293:     U1BRGH = (1666 >> 8) & 0xFF;
   545  0022F0  0E06               	movlw	6
   546  0022F2  6FF6               	movwf	246,b	;volatile
   547  0022F4                     
   548                           ; BSR set to: 61
   549  0022F4  9CBC               	bcf	188,6,c	;volatile
   550  0022F6                     
   551                           ; BSR set to: 61
   552  0022F6  9CC4               	bcf	196,6,c	;volatile
   553  0022F8                     
   554                           ; BSR set to: 61
   555  0022F8  013A               	movlb	58	; () banked
   556  0022FA  9D60               	bcf	96,6,b	;volatile
   557  0022FC                     
   558                           ; BSR set to: 58
   559  0022FC  8EC4               	bsf	196,7,c	;volatile
   560  0022FE                     
   561                           ; BSR set to: 58
   562  0022FE  9F60               	bcf	96,7,b	;volatile
   563  002300                     
   564                           ; BSR set to: 58
   565  002300  94BB               	bcf	187,2,c	;volatile
   566  002302                     
   567                           ; BSR set to: 58
   568  002302  94C3               	bcf	195,2,c	;volatile
   569  002304                     
   570                           ; BSR set to: 58
   571  002304  9550               	bcf	80,2,b	;volatile
   572  002306                     
   573                           ; BSR set to: 58
   574                           ;main.c: 299:     (RC6PPS) = (0b010011);
   575  002306  0E13               	movlw	19
   576  002308  6F16               	movwf	22,b	;volatile
   577  00230A                     
   578                           ; BSR set to: 58
   579                           ;main.c: 300:     (RB2PPS) = (0b010100);
   580  00230A  0E14               	movlw	20
   581  00230C  6F0A               	movwf	10,b	;volatile
   582  00230E                     
   583                           ; BSR set to: 58
   584                           ;main.c: 301:     U1RXPPS = ( ((0x10)) + 7 );
   585  00230E  0E17               	movlw	23
   586  002310  6FE5               	movwf	229,b	;volatile
   587  002312                     
   588                           ; BSR set to: 58
   589                           ;main.c: 302:     U1CTSPPS = 0xFF;
   590  002312  69E6               	setf	230,b	;volatile
   591  002314                     
   592                           ; BSR set to: 58
   593                           ;main.c: 304:     U1CON2bits.FLO = 0b10;
   594  002314  013D               	movlb	61	; () banked
   595  002316  51F4               	movf	244,w,b	;volatile
   596  002318  0BFC               	andlw	-4
   597  00231A  0902               	iorlw	2
   598  00231C  6FF4               	movwf	244,b	;volatile
   599  00231E                     
   600                           ; BSR set to: 61
   601                           ;main.c: 305:     U1CON0bits.TXEN = 1;
   602  00231E  8BF2               	bsf	242,5,b	;volatile
   603  002320                     
   604                           ; BSR set to: 61
   605                           ;main.c: 306:     U1CON0bits.RXEN = 1;
   606  002320  89F2               	bsf	242,4,b	;volatile
   607  002322                     
   608                           ; BSR set to: 61
   609                           ;main.c: 307:     U1CON1bits.ON = 1;
   610  002322  8FF3               	bsf	243,7,b	;volatile
   611  002324                     
   612                           ; BSR set to: 61
   613                           ;main.c: 309:     PIE3bits.U1RXIE = 1;
   614  002324  0139               	movlb	57	; () banked
   615  002326  8793               	bsf	147,3,b	;volatile
   616  002328                     
   617                           ; BSR set to: 57
   618                           ;main.c: 310:     TMR0_StartTimer();
   619  002328  EC42  F014         	call	_TMR0_StartTimer	;wreg free
   620  00232C                     
   621                           ;main.c: 312:     INTCON0bits.GIEH = 1;
   622  00232C  8ED2               	bsf	210,7,c	;volatile
   623  00232E                     l2063:
   624                           
   625                           ;main.c: 319:     {;main.c: 320:         _delay((unsigned long)((2000)*(64000000UL/4000.
      +                          0)));
   626  00232E  0EA3               	movlw	163
   627  002330  6E31               	movwf	(??_main+1)^0,c
   628  002332  0E57               	movlw	87
   629  002334  6E30               	movwf	??_main^0,c
   630  002336  0E02               	movlw	2
   631  002338                     u1137:
   632  002338  2EE8               	decfsz	wreg,f,c
   633  00233A  D7FE               	bra	u1137
   634  00233C  2E30               	decfsz	??_main^0,f,c
   635  00233E  D7FC               	bra	u1137
   636  002340  2E31               	decfsz	(??_main+1)^0,f,c
   637  002342  D7FA               	bra	u1137
   638  002344  D000               	nop2	
   639  002346                     
   640                           ;main.c: 321:         send_request(&rx_state);
   641  002346  0E3E               	movlw	low _rx_state
   642  002348  6E22               	movwf	send_request@st^0,c
   643  00234A  0E00               	movlw	high _rx_state
   644  00234C  6E23               	movwf	(send_request@st+1)^0,c
   645  00234E  EC1C  F014         	call	_send_request	;wreg free
   646  002352                     
   647                           ;main.c: 324:         delay_start(&timeout, 500);
   648  002352  0E6B               	movlw	low main@timeout
   649  002354  6E16               	movwf	delay_start@delay^0,c
   650  002356  0E00               	movlw	high main@timeout
   651  002358  6E17               	movwf	(delay_start@delay+1)^0,c
   652  00235A  0E01               	movlw	1
   653  00235C  6E19               	movwf	(delay_start@value+1)^0,c
   654  00235E  0EF4               	movlw	244
   655  002360  6E18               	movwf	delay_start@value^0,c
   656  002362  EC75  F013         	call	_delay_start	;wreg free
   657  002366                     l2069:
   658                           
   659                           ;main.c: 325:         while (! state_is_frame_ready(&rx_state) && ! delay_is_expired(&ti
      +                          meout))
   660  002366  0E3E               	movlw	low _rx_state
   661  002368  6E0E               	movwf	state_is_frame_ready@st^0,c
   662  00236A  0E00               	movlw	high _rx_state
   663  00236C  6E0F               	movwf	(state_is_frame_ready@st+1)^0,c
   664  00236E  EC0C  F014         	call	_state_is_frame_ready	;wreg free
   665  002372  0900               	iorlw	0
   666  002374  A4D8               	btfss	status,2,c
   667  002376  EFBF  F011         	goto	u1101
   668  00237A  EFC1  F011         	goto	u1100
   669  00237E                     u1101:
   670  00237E  EFCF  F011         	goto	l2073
   671  002382                     u1100:
   672  002382  0E6B               	movlw	low main@timeout
   673  002384  6E16               	movwf	delay_is_expired@delay^0,c
   674  002386  0E00               	movlw	high main@timeout
   675  002388  6E17               	movwf	(delay_is_expired@delay+1)^0,c
   676  00238A  ECDA  F012         	call	_delay_is_expired	;wreg free
   677  00238E  0900               	iorlw	0
   678  002390  B4D8               	btfsc	status,2,c
   679  002392  EFCD  F011         	goto	u1111
   680  002396  EFCF  F011         	goto	u1110
   681  00239A                     u1111:
   682  00239A  EFB3  F011         	goto	l2069
   683  00239E                     u1110:
   684  00239E                     l2073:
   685                           
   686                           ;main.c: 328:         if (state_is_frame_ready(&rx_state)) {
   687  00239E  0E3E               	movlw	low _rx_state
   688  0023A0  6E0E               	movwf	state_is_frame_ready@st^0,c
   689  0023A2  0E00               	movlw	high _rx_state
   690  0023A4  6E0F               	movwf	(state_is_frame_ready@st+1)^0,c
   691  0023A6  EC0C  F014         	call	_state_is_frame_ready	;wreg free
   692  0023AA  0900               	iorlw	0
   693  0023AC  B4D8               	btfsc	status,2,c
   694  0023AE  EFDB  F011         	goto	u1121
   695  0023B2  EFDD  F011         	goto	u1120
   696  0023B6                     u1121:
   697  0023B6  EF97  F011         	goto	l2063
   698  0023BA                     u1120:
   699  0023BA                     
   700                           ;main.c: 329:             send_answer(&rx_state);
   701  0023BA  0E3E               	movlw	low _rx_state
   702  0023BC  6E22               	movwf	send_answer@st^0,c
   703  0023BE  0E00               	movlw	high _rx_state
   704  0023C0  6E23               	movwf	(send_answer@st+1)^0,c
   705  0023C2  ECDF  F010         	call	_send_answer	;wreg free
   706  0023C6                     
   707                           ;main.c: 330:             state_reset(&rx_state);
   708  0023C6  0E3E               	movlw	low _rx_state
   709  0023C8  6E0E               	movwf	state_reset@st^0,c
   710  0023CA  0E00               	movlw	high _rx_state
   711  0023CC  6E0F               	movwf	(state_reset@st+1)^0,c
   712  0023CE  EC76  F012         	call	_state_reset	;wreg free
   713  0023D2  EF97  F011         	goto	l2063
   714  0023D6  EF57  F000         	goto	start
   715  0023DA                     __end_of_main:
   716                           	callstack 0
   717                           
   718 ;; *************** function _state_reset *****************
   719 ;; Defined at:
   720 ;;		line 32 in file "state_machine.c"
   721 ;; Parameters:    Size  Location     Type
   722 ;;  st              2   13[COMRAM] PTR volatile struct stat
   723 ;;		 -> rx_state(10), 
   724 ;; Auto vars:     Size  Location     Type
   725 ;;  i               2   17[COMRAM] int 
   726 ;; Return value:  Size  Location     Type
   727 ;;                  1    wreg      void 
   728 ;; Registers used:
   729 ;;		wreg, fsr2l, fsr2h, status,2, status,0
   730 ;; Tracked objects:
   731 ;;		On entry : 0/0
   732 ;;		On exit  : 0/0
   733 ;;		Unchanged: 0/0
   734 ;; Data sizes:     COMRAM   BANK0   BANK1   BANK2   BANK3   BANK4   BANK5   BANK6   BANK7   BANK8   BANK9  BANK10  BANK1
      +1  BANK12  BANK13  BANK14  BANK15  BANK16  BANK17  BANK18  BANK19  BANK20  BANK21  BANK22  BANK23  BANK24  BANK25  BANK2
      +6  BANK27  BANK28  BANK29  BANK30  BANK31
   735 ;;      Params:         2       0       0       0       0       0       0       0       0       0       0       0       
      +0       0       0       0       0       0       0       0       0       0       0       0       0       0       0       
      +0       0       0       0       0       0
   736 ;;      Locals:         2       0       0       0       0       0       0       0       0       0       0       0       
      +0       0       0       0       0       0       0       0       0       0       0       0       0       0       0       
      +0       0       0       0       0       0
   737 ;;      Temps:          2       0       0       0       0       0       0       0       0       0       0       0       
      +0       0       0       0       0       0       0       0       0       0       0       0       0       0       0       
      +0       0       0       0       0       0
   738 ;;      Totals:         6       0       0       0       0       0       0       0       0       0       0       0       
      +0       0       0       0       0       0       0       0       0       0       0       0       0       0       0       
      +0       0       0       0       0       0
   739 ;;Total ram usage:        6 bytes
   740 ;; Hardware stack levels used:    1
   741 ;; Hardware stack levels required when called:    3
   742 ;; This function calls:
   743 ;;		Nothing
   744 ;; This function is called by:
   745 ;;		_main
   746 ;; This function uses a non-reentrant model
   747 ;;
   748                           
   749                           	psect	text1
   750  0024EC                     __ptext1:
   751                           	callstack 0
   752  0024EC                     _state_reset:
   753                           	callstack 27
   754  0024EC                     
   755                           ;state_machine.c: 33:     st->ile = 0;
   756  0024EC  0060  F03B  FFD9   	movff	state_reset@st,fsr2l
   757  0024F2  0060  F03F  FFDA   	movff	state_reset@st+1,fsr2h
   758  0024F8  0E00               	movlw	0
   759  0024FA  6EDF               	movwf	indf2,c
   760  0024FC                     
   761                           ;state_machine.c: 34:     st->FRAME_READY = 0;
   762  0024FC  EE20 F009          	lfsr	2,9
   763  002500  500E               	movf	state_reset@st^0,w,c
   764  002502  26D9               	addwf	fsr2l,f,c
   765  002504  500F               	movf	(state_reset@st+1)^0,w,c
   766  002506  22DA               	addwfc	fsr2h,f,c
   767  002508  90DF               	bcf	indf2,0,c
   768  00250A                     
   769                           ;state_machine.c: 36:     for(int i = 0; i < 8; i++) {
   770  00250A  0E00               	movlw	0
   771  00250C  6E13               	movwf	(state_reset@i+1)^0,c
   772  00250E  0E00               	movlw	0
   773  002510  6E12               	movwf	state_reset@i^0,c
   774  002512                     l1949:
   775                           
   776                           ;state_machine.c: 37:         st->buf[i] = '\0';
   777  002512  5012               	movf	state_reset@i^0,w,c
   778  002514  240E               	addwf	state_reset@st^0,w,c
   779  002516  6E10               	movwf	??_state_reset^0,c
   780  002518  5013               	movf	(state_reset@i+1)^0,w,c
   781  00251A  200F               	addwfc	(state_reset@st+1)^0,w,c
   782  00251C  6E11               	movwf	(??_state_reset+1)^0,c
   783  00251E  0E01               	movlw	1
   784  002520  2410               	addwf	??_state_reset^0,w,c
   785  002522  6ED9               	movwf	fsr2l,c
   786  002524  0E00               	movlw	0
   787  002526  2011               	addwfc	(??_state_reset+1)^0,w,c
   788  002528  6EDA               	movwf	fsr2h,c
   789  00252A  0E00               	movlw	0
   790  00252C  6EDF               	movwf	indf2,c
   791  00252E                     
   792                           ;state_machine.c: 38:     }
   793  00252E  4A12               	infsnz	state_reset@i^0,f,c
   794  002530  2A13               	incf	(state_reset@i+1)^0,f,c
   795  002532  BE13               	btfsc	(state_reset@i+1)^0,7,c
   796  002534  EFA5  F012         	goto	u1051
   797  002538  5013               	movf	(state_reset@i+1)^0,w,c
   798  00253A  E109               	bnz	u1050
   799  00253C  0E08               	movlw	8
   800  00253E  5C12               	subwf	state_reset@i^0,w,c
   801  002540  A0D8               	btfss	status,0,c
   802  002542  EFA5  F012         	goto	u1051
   803  002546  EFA7  F012         	goto	u1050
   804  00254A                     u1051:
   805  00254A  EF89  F012         	goto	l1949
   806  00254E                     u1050:
   807  00254E  0012               	return		;funcret
   808  002550                     __end_of_state_reset:
   809                           	callstack 0
   810                           
   811 ;; *************** function _state_is_frame_ready *****************
   812 ;; Defined at:
   813 ;;		line 40 in file "state_machine.c"
   814 ;; Parameters:    Size  Location     Type
   815 ;;  st              2   13[COMRAM] PTR volatile struct stat
   816 ;;		 -> rx_state(10), 
   817 ;; Auto vars:     Size  Location     Type
   818 ;;		None
   819 ;; Return value:  Size  Location     Type
   820 ;;                  1    wreg      _Bool 
   821 ;; Registers used:
   822 ;;		wreg, fsr2l, fsr2h, status,2, status,0
   823 ;; Tracked objects:
   824 ;;		On entry : 0/0
   825 ;;		On exit  : 0/0
   826 ;;		Unchanged: 0/0
   827 ;; Data sizes:     COMRAM   BANK0   BANK1   BANK2   BANK3   BANK4   BANK5   BANK6   BANK7   BANK8   BANK9  BANK10  BANK1
      +1  BANK12  BANK13  BANK14  BANK15  BANK16  BANK17  BANK18  BANK19  BANK20  BANK21  BANK22  BANK23  BANK24  BANK25  BANK2
      +6  BANK27  BANK28  BANK29  BANK30  BANK31
   828 ;;      Params:         2       0       0       0       0       0       0       0       0       0       0       0       
      +0       0       0       0       0       0       0       0       0       0       0       0       0       0       0       
      +0       0       0       0       0       0
   829 ;;      Locals:         0       0       0       0       0       0       0       0       0       0       0       0       
      +0       0       0       0       0       0       0       0       0       0       0       0       0       0       0       
      +0       0       0       0       0       0
   830 ;;      Temps:          0       0       0       0       0       0       0       0       0       0       0       0       
      +0       0       0       0       0       0       0       0       0       0       0       0       0       0       0       
      +0       0       0       0       0       0
   831 ;;      Totals:         2       0       0       0       0       0       0       0       0       0       0       0       
      +0       0       0       0       0       0       0       0       0       0       0       0       0       0       0       
      +0       0       0       0       0       0
   832 ;;Total ram usage:        2 bytes
   833 ;; Hardware stack levels used:    1
   834 ;; Hardware stack levels required when called:    3
   835 ;; This function calls:
   836 ;;		Nothing
   837 ;; This function is called by:
   838 ;;		_main
   839 ;; This function uses a non-reentrant model
   840 ;;
   841                           
   842                           	psect	text2
   843  002818                     __ptext2:
   844                           	callstack 0
   845  002818                     _state_is_frame_ready:
   846                           	callstack 27
   847  002818  EE20 F009          	lfsr	2,9
   848  00281C  500E               	movf	state_is_frame_ready@st^0,w,c
   849  00281E  26D9               	addwf	fsr2l,f,c
   850  002820  500F               	movf	(state_is_frame_ready@st+1)^0,w,c
   851  002822  22DA               	addwfc	fsr2h,f,c
   852  002824  B0DF               	btfsc	indf2,0,c
   853  002826  EF17  F014         	goto	u1041
   854  00282A  EF1A  F014         	goto	u1040
   855  00282E                     u1041:
   856  00282E  0E01               	movlw	1
   857  002830  EF1B  F014         	goto	u1046
   858  002834                     u1040:
   859  002834  0E00               	movlw	0
   860  002836                     u1046:
   861  002836  0012               	return		;funcret
   862  002838                     __end_of_state_is_frame_ready:
   863                           	callstack 0
   864                           
   865 ;; *************** function _send_request *****************
   866 ;; Defined at:
   867 ;;		line 135 in file "main.c"
   868 ;; Parameters:    Size  Location     Type
   869 ;;  st              2   33[COMRAM] PTR volatile struct stat
   870 ;;		 -> rx_state(10), 
   871 ;; Auto vars:     Size  Location     Type
   872 ;;  cmd             4   35[COMRAM] unsigned char [4]
   873 ;; Return value:  Size  Location     Type
   874 ;;                  1    wreg      void 
   875 ;; Registers used:
   876 ;;		wreg, fsr1l, fsr1h, fsr2l, fsr2h, status,2, status,0, tblptrl, tblptrh, tblptru, cstack
   877 ;; Tracked objects:
   878 ;;		On entry : 0/0
   879 ;;		On exit  : 0/0
   880 ;;		Unchanged: 0/0
   881 ;; Data sizes:     COMRAM   BANK0   BANK1   BANK2   BANK3   BANK4   BANK5   BANK6   BANK7   BANK8   BANK9  BANK10  BANK1
      +1  BANK12  BANK13  BANK14  BANK15  BANK16  BANK17  BANK18  BANK19  BANK20  BANK21  BANK22  BANK23  BANK24  BANK25  BANK2
      +6  BANK27  BANK28  BANK29  BANK30  BANK31
   882 ;;      Params:         2       0       0       0       0       0       0       0       0       0       0       0       
      +0       0       0       0       0       0       0       0       0       0       0       0       0       0       0       
      +0       0       0       0       0       0
   883 ;;      Locals:         4       0       0       0       0       0       0       0       0       0       0       0       
      +0       0       0       0       0       0       0       0       0       0       0       0       0       0       0       
      +0       0       0       0       0       0
   884 ;;      Temps:          0       0       0       0       0       0       0       0       0       0       0       0       
      +0       0       0       0       0       0       0       0       0       0       0       0       0       0       0       
      +0       0       0       0       0       0
   885 ;;      Totals:         6       0       0       0       0       0       0       0       0       0       0       0       
      +0       0       0       0       0       0       0       0       0       0       0       0       0       0       0       
      +0       0       0       0       0       0
   886 ;;Total ram usage:        6 bytes
   887 ;; Hardware stack levels used:    1
   888 ;; Hardware stack levels required when called:    6
   889 ;; This function calls:
   890 ;;		_prints
   891 ;; This function is called by:
   892 ;;		_main
   893 ;; This function uses a non-reentrant model
   894 ;;
   895                           
   896                           	psect	text3
   897  002838                     __ptext3:
   898                           	callstack 0
   899  002838                     _send_request:
   900                           	callstack 24
   901  002838                     
   902                           ;main.c: 136:     char cmd[] = "{A}";
   903  002838  C04C  F024         	movff	send_request@F15375,send_request@cmd
   904  00283C  C04D  F025         	movff	send_request@F15375+1,send_request@cmd+1
   905  002840  C04E  F026         	movff	send_request@F15375+2,send_request@cmd+2
   906  002844  C04F  F027         	movff	send_request@F15375+3,send_request@cmd+3
   907  002848                     
   908                           ;main.c: 137:     prints(cmd);
   909  002848  0E24               	movlw	low send_request@cmd
   910  00284A  6E20               	movwf	prints@str^0,c
   911  00284C  0E00               	movlw	high send_request@cmd
   912  00284E  6E21               	movwf	(prints@str+1)^0,c
   913  002850  ECED  F011         	call	_prints	;wreg free
   914  002854  0012               	return		;funcret
   915  002856                     __end_of_send_request:
   916                           	callstack 0
   917                           
   918 ;; *************** function _send_answer *****************
   919 ;; Defined at:
   920 ;;		line 140 in file "main.c"
   921 ;; Parameters:    Size  Location     Type
   922 ;;  st              2   33[COMRAM] PTR volatile struct stat
   923 ;;		 -> rx_state(10), 
   924 ;; Auto vars:     Size  Location     Type
   925 ;;  cmd             9   36[COMRAM] unsigned char [9]
   926 ;;  num             2   45[COMRAM] unsigned short 
   927 ;; Return value:  Size  Location     Type
   928 ;;                  1    wreg      void 
   929 ;; Registers used:
   930 ;;		wreg, fsr1l, fsr1h, fsr2l, fsr2h, status,2, status,0, tblptrl, tblptrh, tblptru, prodl, prodh, cstack
   931 ;; Tracked objects:
   932 ;;		On entry : 0/0
   933 ;;		On exit  : 0/0
   934 ;;		Unchanged: 0/0
   935 ;; Data sizes:     COMRAM   BANK0   BANK1   BANK2   BANK3   BANK4   BANK5   BANK6   BANK7   BANK8   BANK9  BANK10  BANK1
      +1  BANK12  BANK13  BANK14  BANK15  BANK16  BANK17  BANK18  BANK19  BANK20  BANK21  BANK22  BANK23  BANK24  BANK25  BANK2
      +6  BANK27  BANK28  BANK29  BANK30  BANK31
   936 ;;      Params:         2       0       0       0       0       0       0       0       0       0       0       0       
      +0       0       0       0       0       0       0       0       0       0       0       0       0       0       0       
      +0       0       0       0       0       0
   937 ;;      Locals:        11       0       0       0       0       0       0       0       0       0       0       0       
      +0       0       0       0       0       0       0       0       0       0       0       0       0       0       0       
      +0       0       0       0       0       0
   938 ;;      Temps:          1       0       0       0       0       0       0       0       0       0       0       0       
      +0       0       0       0       0       0       0       0       0       0       0       0       0       0       0       
      +0       0       0       0       0       0
   939 ;;      Totals:        14       0       0       0       0       0       0       0       0       0       0       0       
      +0       0       0       0       0       0       0       0       0       0       0       0       0       0       0       
      +0       0       0       0       0       0
   940 ;;Total ram usage:       14 bytes
   941 ;; Hardware stack levels used:    1
   942 ;; Hardware stack levels required when called:    6
   943 ;; This function calls:
   944 ;;		___lwdiv
   945 ;;		___lwmod
   946 ;;		_get_digit
   947 ;;		_prints
   948 ;; This function is called by:
   949 ;;		_main
   950 ;; This function uses a non-reentrant model
   951 ;;
   952                           
   953                           	psect	text4
   954  0021BE                     __ptext4:
   955                           	callstack 0
   956  0021BE                     _send_answer:
   957                           	callstack 24
   958  0021BE                     
   959                           ;main.c: 141:     uint16_t num = 0;
   960  0021BE  0E00               	movlw	0
   961  0021C0  6E2F               	movwf	(send_answer@num+1)^0,c
   962  0021C2  0E00               	movlw	0
   963  0021C4  6E2E               	movwf	send_answer@num^0,c
   964  0021C6                     
   965                           ;main.c: 142:     num += get_digit(st->buf[1]) * 100;
   966  0021C6  EE20 F002          	lfsr	2,2
   967  0021CA  5022               	movf	send_answer@st^0,w,c
   968  0021CC  26D9               	addwf	fsr2l,f,c
   969  0021CE  5023               	movf	(send_answer@st+1)^0,w,c
   970  0021D0  22DA               	addwfc	fsr2h,f,c
   971  0021D2  50DF               	movf	indf2,w,c
   972  0021D4  EC5A  F013         	call	_get_digit
   973  0021D8  6E24               	movwf	??_send_answer^0,c
   974  0021DA  5024               	movf	??_send_answer^0,w,c
   975  0021DC  0D64               	mullw	100
   976  0021DE  50F3               	movf	243,w,c
   977  0021E0  262E               	addwf	send_answer@num^0,f,c
   978  0021E2  50F4               	movf	244,w,c
   979  0021E4  222F               	addwfc	(send_answer@num+1)^0,f,c
   980  0021E6                     
   981                           ;main.c: 143:     num += get_digit(st->buf[2]) * 10;
   982  0021E6  EE20 F003          	lfsr	2,3
   983  0021EA  5022               	movf	send_answer@st^0,w,c
   984  0021EC  26D9               	addwf	fsr2l,f,c
   985  0021EE  5023               	movf	(send_answer@st+1)^0,w,c
   986  0021F0  22DA               	addwfc	fsr2h,f,c
   987  0021F2  50DF               	movf	indf2,w,c
   988  0021F4  EC5A  F013         	call	_get_digit
   989  0021F8  6E24               	movwf	??_send_answer^0,c
   990  0021FA  5024               	movf	??_send_answer^0,w,c
   991  0021FC  0D0A               	mullw	10
   992  0021FE  50F3               	movf	243,w,c
   993  002200  262E               	addwf	send_answer@num^0,f,c
   994  002202  50F4               	movf	244,w,c
   995  002204  222F               	addwfc	(send_answer@num+1)^0,f,c
   996  002206                     
   997                           ;main.c: 144:     num += get_digit(st->buf[3]) * 1;
   998  002206  EE20 F004          	lfsr	2,4
   999  00220A  5022               	movf	send_answer@st^0,w,c
  1000  00220C  26D9               	addwf	fsr2l,f,c
  1001  00220E  5023               	movf	(send_answer@st+1)^0,w,c
  1002  002210  22DA               	addwfc	fsr2h,f,c
  1003  002212  50DF               	movf	indf2,w,c
  1004  002214  EC5A  F013         	call	_get_digit
  1005  002218  6E24               	movwf	??_send_answer^0,c
  1006  00221A  5024               	movf	??_send_answer^0,w,c
  1007  00221C  0D01               	mullw	1
  1008  00221E  50F3               	movf	243,w,c
  1009  002220  262E               	addwf	send_answer@num^0,f,c
  1010  002222  50F4               	movf	244,w,c
  1011  002224  222F               	addwfc	(send_answer@num+1)^0,f,c
  1012  002226                     
  1013                           ;main.c: 145:     num += 1;
  1014  002226  4A2E               	infsnz	send_answer@num^0,f,c
  1015  002228  2A2F               	incf	(send_answer@num+1)^0,f,c
  1016  00222A                     
  1017                           ;main.c: 147:     char cmd[9] = {0};
  1018  00222A  EE20  F025         	lfsr	2,send_answer@cmd
  1019  00222E  0E08               	movlw	8
  1020  002230                     u1031:
  1021  002230  6ADE               	clrf	postinc2,c
  1022  002232  06E8               	decf	wreg,f,c
  1023  002234  E2FD               	bc	u1031
  1024  002236                     
  1025                           ;main.c: 148:     cmd[0] = '{';
  1026  002236  0E7B               	movlw	123
  1027  002238  6E25               	movwf	send_answer@cmd^0,c
  1028  00223A                     
  1029                           ;main.c: 149:     cmd[1] = st->buf[0];
  1030  00223A  EE20 F001          	lfsr	2,1
  1031  00223E  5022               	movf	send_answer@st^0,w,c
  1032  002240  26D9               	addwf	fsr2l,f,c
  1033  002242  5023               	movf	(send_answer@st+1)^0,w,c
  1034  002244  22DA               	addwfc	fsr2h,f,c
  1035  002246  50DF               	movf	indf2,w,c
  1036  002248  6E26               	movwf	(send_answer@cmd+1)^0,c
  1037  00224A                     
  1038                           ;main.c: 150:     cmd[2] = ((num/100) % 10) + '0';
  1039  00224A  0E00               	movlw	0
  1040  00224C  6E11               	movwf	(___lwdiv@divisor+1)^0,c
  1041  00224E  0E64               	movlw	100
  1042  002250  6E10               	movwf	___lwdiv@divisor^0,c
  1043  002252  C02E  F00E         	movff	send_answer@num,___lwdiv@dividend
  1044  002256  C02F  F00F         	movff	send_answer@num+1,___lwdiv@dividend+1
  1045  00225A  EC3C  F012         	call	___lwdiv	;wreg free
  1046  00225E  C00E  F015         	movff	?___lwdiv,___lwmod@dividend
  1047  002262  C00F  F016         	movff	?___lwdiv+1,___lwmod@dividend+1
  1048  002266  0E00               	movlw	0
  1049  002268  6E18               	movwf	(___lwmod@divisor+1)^0,c
  1050  00226A  0E0A               	movlw	10
  1051  00226C  6E17               	movwf	___lwmod@divisor^0,c
  1052  00226E  ECA8  F012         	call	___lwmod	;wreg free
  1053  002272  5015               	movf	?___lwmod^0,w,c
  1054  002274  0F30               	addlw	48
  1055  002276  6E27               	movwf	(send_answer@cmd+2)^0,c
  1056  002278                     
  1057                           ;main.c: 151:     cmd[3] = ((num/10) % 10) + '0';
  1058  002278  0E00               	movlw	0
  1059  00227A  6E11               	movwf	(___lwdiv@divisor+1)^0,c
  1060  00227C  0E0A               	movlw	10
  1061  00227E  6E10               	movwf	___lwdiv@divisor^0,c
  1062  002280  C02E  F00E         	movff	send_answer@num,___lwdiv@dividend
  1063  002284  C02F  F00F         	movff	send_answer@num+1,___lwdiv@dividend+1
  1064  002288  EC3C  F012         	call	___lwdiv	;wreg free
  1065  00228C  C00E  F015         	movff	?___lwdiv,___lwmod@dividend
  1066  002290  C00F  F016         	movff	?___lwdiv+1,___lwmod@dividend+1
  1067  002294  0E00               	movlw	0
  1068  002296  6E18               	movwf	(___lwmod@divisor+1)^0,c
  1069  002298  0E0A               	movlw	10
  1070  00229A  6E17               	movwf	___lwmod@divisor^0,c
  1071  00229C  ECA8  F012         	call	___lwmod	;wreg free
  1072  0022A0  5015               	movf	?___lwmod^0,w,c
  1073  0022A2  0F30               	addlw	48
  1074  0022A4  6E28               	movwf	(send_answer@cmd+3)^0,c
  1075  0022A6                     
  1076                           ;main.c: 152:     cmd[4] = ((num/1) % 10) + '0';
  1077  0022A6  C02E  F015         	movff	send_answer@num,___lwmod@dividend
  1078  0022AA  C02F  F016         	movff	send_answer@num+1,___lwmod@dividend+1
  1079  0022AE  0E00               	movlw	0
  1080  0022B0  6E18               	movwf	(___lwmod@divisor+1)^0,c
  1081  0022B2  0E0A               	movlw	10
  1082  0022B4  6E17               	movwf	___lwmod@divisor^0,c
  1083  0022B6  ECA8  F012         	call	___lwmod	;wreg free
  1084  0022BA  5015               	movf	?___lwmod^0,w,c
  1085  0022BC  0F30               	addlw	48
  1086  0022BE  6E29               	movwf	(send_answer@cmd+4)^0,c
  1087  0022C0                     
  1088                           ;main.c: 153:     cmd[5] = '=';
  1089  0022C0  0E3D               	movlw	61
  1090  0022C2  6E2A               	movwf	(send_answer@cmd+5)^0,c
  1091  0022C4                     
  1092                           ;main.c: 154:     cmd[6] = '=';
  1093  0022C4  0E3D               	movlw	61
  1094  0022C6  6E2B               	movwf	(send_answer@cmd+6)^0,c
  1095  0022C8                     
  1096                           ;main.c: 155:     cmd[7] = '}';
  1097  0022C8  0E7D               	movlw	125
  1098  0022CA  6E2C               	movwf	(send_answer@cmd+7)^0,c
  1099  0022CC                     
  1100                           ;main.c: 156:     prints(cmd);
  1101  0022CC  0E25               	movlw	low send_answer@cmd
  1102  0022CE  6E20               	movwf	prints@str^0,c
  1103  0022D0  0E00               	movlw	high send_answer@cmd
  1104  0022D2  6E21               	movwf	(prints@str+1)^0,c
  1105  0022D4  ECED  F011         	call	_prints	;wreg free
  1106  0022D8  0012               	return		;funcret
  1107  0022DA                     __end_of_send_answer:
  1108                           	callstack 0
  1109                           
  1110 ;; *************** function _prints *****************
  1111 ;; Defined at:
  1112 ;;		line 111 in file "main.c"
  1113 ;; Parameters:    Size  Location     Type
  1114 ;;  str             2   31[COMRAM] PTR const unsigned char 
  1115 ;;		 -> printnum@frm(8), STR_4(2), STR_3(2), STR_2(2), 
  1116 ;;		 -> STR_1(2), send_answer@cmd(9), send_request@cmd(4), 
  1117 ;; Auto vars:     Size  Location     Type
  1118 ;;		None
  1119 ;; Return value:  Size  Location     Type
  1120 ;;                  1    wreg      void 
  1121 ;; Registers used:
  1122 ;;		wreg, fsr1l, fsr1h, fsr2l, fsr2h, status,2, status,0, tblptrl, tblptrh, tblptru, cstack
  1123 ;; Tracked objects:
  1124 ;;		On entry : 0/0
  1125 ;;		On exit  : 0/0
  1126 ;;		Unchanged: 0/0
  1127 ;; Data sizes:     COMRAM   BANK0   BANK1   BANK2   BANK3   BANK4   BANK5   BANK6   BANK7   BANK8   BANK9  BANK10  BANK1
      +1  BANK12  BANK13  BANK14  BANK15  BANK16  BANK17  BANK18  BANK19  BANK20  BANK21  BANK22  BANK23  BANK24  BANK25  BANK2
      +6  BANK27  BANK28  BANK29  BANK30  BANK31
  1128 ;;      Params:         2       0       0       0       0       0       0       0       0       0       0       0       
      +0       0       0       0       0       0       0       0       0       0       0       0       0       0       0       
      +0       0       0       0       0       0
  1129 ;;      Locals:         0       0       0       0       0       0       0       0       0       0       0       0       
      +0       0       0       0       0       0       0       0       0       0       0       0       0       0       0       
      +0       0       0       0       0       0
  1130 ;;      Temps:          0       0       0       0       0       0       0       0       0       0       0       0       
      +0       0       0       0       0       0       0       0       0       0       0       0       0       0       0       
      +0       0       0       0       0       0
  1131 ;;      Totals:         2       0       0       0       0       0       0       0       0       0       0       0       
      +0       0       0       0       0       0       0       0       0       0       0       0       0       0       0       
      +0       0       0       0       0       0
  1132 ;;Total ram usage:        2 bytes
  1133 ;; Hardware stack levels used:    1
  1134 ;; Hardware stack levels required when called:    5
  1135 ;; This function calls:
  1136 ;;		_delay_is_expired
  1137 ;; This function is called by:
  1138 ;;		_send_request
  1139 ;;		_send_answer
  1140 ;;		_handler_command_a
  1141 ;;		_handler_command_s
  1142 ;;		_handler_command_b
  1143 ;;		_handler_command_d
  1144 ;;		_printnum
  1145 ;; This function uses a non-reentrant model
  1146 ;;
  1147                           
  1148                           	psect	text5
  1149  0023DA                     __ptext5:
  1150                           	callstack 0
  1151  0023DA                     _prints:
  1152                           	callstack 24
  1153  0023DA                     l1787:
  1154  0023DA  0E48               	movlw	low _delay
  1155  0023DC  6E16               	movwf	delay_is_expired@delay^0,c
  1156  0023DE  0E00               	movlw	high _delay
  1157  0023E0  6E17               	movwf	(delay_is_expired@delay+1)^0,c
  1158  0023E2  ECDA  F012         	call	_delay_is_expired	;wreg free
  1159  0023E6  0900               	iorlw	0
  1160  0023E8  B4D8               	btfsc	status,2,c
  1161  0023EA  EFF9  F011         	goto	u901
  1162  0023EE  EFFB  F011         	goto	u900
  1163  0023F2                     u901:
  1164  0023F2  EFED  F011         	goto	l1787
  1165  0023F6                     u900:
  1166  0023F6  EF1E  F012         	goto	l1793
  1167  0023FA                     l93:
  1168  0023FA  0139               	movlb	57	; () banked
  1169  0023FC  A9A3               	btfss	163,4,b	;volatile
  1170  0023FE  EF03  F012         	goto	u911
  1171  002402  EF05  F012         	goto	u910
  1172  002406                     u911:
  1173  002406  EFFD  F011         	goto	l93
  1174  00240A                     u910:
  1175  00240A                     
  1176                           ; BSR set to: 57
  1177                           ;main.c: 119:         U1TXB = *str++;
  1178  00240A  0060  F083  FFF6   	movff	prints@str,tblptrl
  1179  002410  0060  F087  FFF7   	movff	prints@str+1,tblptrh
  1180  002416  0E00               	movlw	low (__smallconst shr (0+16))
  1181  002418  6EF8               	movwf	tblptru,c
  1182  00241A  0E1F               	movlw	(high __ramtop+-1)
  1183  00241C  64F7               	cpfsgt	tblptrh,c
  1184  00241E  D003               	bra	u927
  1185  002420  0008               	tblrd		*
  1186  002422  50F5               	movf	tablat,w,c
  1187  002424  D007               	bra	u920
  1188  002426                     u927:
  1189  002426  006F FFDB FFE1     	movff	tblptrl,fsr1l
  1190  00242C  006F FFDF FFE2     	movff	tblptrh,fsr1h
  1191  002432  50E7               	movf	indf1,w,c
  1192  002434                     u920:
  1193  002434  013D               	movlb	61	; () banked
  1194  002436  6FEA               	movwf	234,b	;volatile
  1195  002438                     
  1196                           ; BSR set to: 61
  1197  002438  4A20               	infsnz	prints@str^0,f,c
  1198  00243A  2A21               	incf	(prints@str+1)^0,f,c
  1199  00243C                     l1793:
  1200                           
  1201                           ;main.c: 115:     while(*str)
  1202  00243C  0060  F083  FFF6   	movff	prints@str,tblptrl
  1203  002442  0060  F087  FFF7   	movff	prints@str+1,tblptrh
  1204  002448  0E00               	movlw	low (__smallconst shr (0+16))
  1205  00244A  6EF8               	movwf	tblptru,c
  1206  00244C  0E1F               	movlw	(high __ramtop+-1)
  1207  00244E  64F7               	cpfsgt	tblptrh,c
  1208  002450  D003               	bra	u937
  1209  002452  0008               	tblrd		*
  1210  002454  50F5               	movf	tablat,w,c
  1211  002456  D007               	bra	u930
  1212  002458                     u937:
  1213  002458  006F FFDB FFE1     	movff	tblptrl,fsr1l
  1214  00245E  006F FFDF FFE2     	movff	tblptrh,fsr1h
  1215  002464  50E7               	movf	indf1,w,c
  1216  002466                     u930:
  1217  002466  0900               	iorlw	0
  1218  002468  A4D8               	btfss	status,2,c
  1219  00246A  EF39  F012         	goto	u941
  1220  00246E  EF3B  F012         	goto	u940
  1221  002472                     u941:
  1222  002472  EFFD  F011         	goto	l93
  1223  002476                     u940:
  1224  002476  0012               	return		;funcret
  1225  002478                     __end_of_prints:
  1226                           	callstack 0
  1227                           
  1228 ;; *************** function _delay_is_expired *****************
  1229 ;; Defined at:
  1230 ;;		line 89 in file "main.c"
  1231 ;; Parameters:    Size  Location     Type
  1232 ;;  delay           2   21[COMRAM] PTR struct .
  1233 ;;		 -> main@timeout(4), delay(4), 
  1234 ;; Auto vars:     Size  Location     Type
  1235 ;;  now             2   29[COMRAM] unsigned short 
  1236 ;; Return value:  Size  Location     Type
  1237 ;;                  1    wreg      unsigned char 
  1238 ;; Registers used:
  1239 ;;		wreg, fsr1l, fsr1h, fsr2l, fsr2h, status,2, status,0, cstack
  1240 ;; Tracked objects:
  1241 ;;		On entry : 0/0
  1242 ;;		On exit  : 0/0
  1243 ;;		Unchanged: 0/0
  1244 ;; Data sizes:     COMRAM   BANK0   BANK1   BANK2   BANK3   BANK4   BANK5   BANK6   BANK7   BANK8   BANK9  BANK10  BANK1
      +1  BANK12  BANK13  BANK14  BANK15  BANK16  BANK17  BANK18  BANK19  BANK20  BANK21  BANK22  BANK23  BANK24  BANK25  BANK2
      +6  BANK27  BANK28  BANK29  BANK30  BANK31
  1245 ;;      Params:         2       0       0       0       0       0       0       0       0       0       0       0       
      +0       0       0       0       0       0       0       0       0       0       0       0       0       0       0       
      +0       0       0       0       0       0
  1246 ;;      Locals:         2       0       0       0       0       0       0       0       0       0       0       0       
      +0       0       0       0       0       0       0       0       0       0       0       0       0       0       0       
      +0       0       0       0       0       0
  1247 ;;      Temps:          6       0       0       0       0       0       0       0       0       0       0       0       
      +0       0       0       0       0       0       0       0       0       0       0       0       0       0       0       
      +0       0       0       0       0       0
  1248 ;;      Totals:        10       0       0       0       0       0       0       0       0       0       0       0       
      +0       0       0       0       0       0       0       0       0       0       0       0       0       0       0       
      +0       0       0       0       0       0
  1249 ;;Total ram usage:       10 bytes
  1250 ;; Hardware stack levels used:    1
  1251 ;; Hardware stack levels required when called:    4
  1252 ;; This function calls:
  1253 ;;		_TMR0_ReadTimer
  1254 ;; This function is called by:
  1255 ;;		_prints
  1256 ;;		_main
  1257 ;;		_delay_check_and_restart_interval
  1258 ;; This function uses a non-reentrant model
  1259 ;;
  1260                           
  1261                           	psect	text6
  1262  0025B4                     __ptext6:
  1263                           	callstack 0
  1264  0025B4                     _delay_is_expired:
  1265                           	callstack 24
  1266  0025B4                     
  1267                           ;main.c: 89: uint8_t delay_is_expired(delay_t* delay);main.c: 90: {;main.c: 91:     uint
      +                          16_t now = TMR0_ReadTimer();
  1268  0025B4  ECEA  F013         	call	_TMR0_ReadTimer	;wreg free
  1269  0025B8  C00E  F01E         	movff	?_TMR0_ReadTimer,delay_is_expired@now
  1270  0025BC  C00F  F01F         	movff	?_TMR0_ReadTimer+1,delay_is_expired@now+1
  1271  0025C0                     
  1272                           ;main.c: 92:     return (now - delay->start) >= delay->delay;
  1273  0025C0  EE20 F002          	lfsr	2,2
  1274  0025C4  5016               	movf	delay_is_expired@delay^0,w,c
  1275  0025C6  26D9               	addwf	fsr2l,f,c
  1276  0025C8  5017               	movf	(delay_is_expired@delay+1)^0,w,c
  1277  0025CA  22DA               	addwfc	fsr2h,f,c
  1278  0025CC  0060  F05B  FFE1   	movff	delay_is_expired@delay,fsr1l
  1279  0025D2  0060  F05F  FFE2   	movff	delay_is_expired@delay+1,fsr1h
  1280  0025D8  006F FF98  F01A    	movff	postinc1,??_delay_is_expired+2
  1281  0025DE  006F FF94  F01B    	movff	postdec1,??_delay_is_expired+3
  1282  0025E4  C01E  F01C         	movff	delay_is_expired@now,??_delay_is_expired+4
  1283  0025E8  C01F  F01D         	movff	delay_is_expired@now+1,??_delay_is_expired+5
  1284  0025EC  501A               	movf	(??_delay_is_expired+2)^0,w,c
  1285  0025EE  5E1C               	subwf	(??_delay_is_expired+4)^0,f,c
  1286  0025F0  501B               	movf	(??_delay_is_expired+3)^0,w,c
  1287  0025F2  5A1D               	subwfb	(??_delay_is_expired+5)^0,f,c
  1288  0025F4  50DE               	movf	postinc2,w,c
  1289  0025F6  5C1C               	subwf	(??_delay_is_expired+4)^0,w,c
  1290  0025F8  50DE               	movf	postinc2,w,c
  1291  0025FA  581D               	subwfb	(??_delay_is_expired+5)^0,w,c
  1292  0025FC  B0D8               	btfsc	status,0,c
  1293  0025FE  EF03  F013         	goto	u881
  1294  002602  EF06  F013         	goto	u880
  1295  002606                     u881:
  1296  002606  0E01               	movlw	1
  1297  002608  EF07  F013         	goto	u890
  1298  00260C                     u880:
  1299  00260C  0E00               	movlw	0
  1300  00260E                     u890:
  1301  00260E  0012               	return		;funcret
  1302  002610                     __end_of_delay_is_expired:
  1303                           	callstack 0
  1304                           
  1305 ;; *************** function _get_digit *****************
  1306 ;; Defined at:
  1307 ;;		line 123 in file "main.c"
  1308 ;; Parameters:    Size  Location     Type
  1309 ;;  ch              1    wreg     unsigned char 
  1310 ;; Auto vars:     Size  Location     Type
  1311 ;;  ch              1   14[COMRAM] unsigned char 
  1312 ;;  digit           1   13[COMRAM] unsigned char 
  1313 ;; Return value:  Size  Location     Type
  1314 ;;                  1    wreg      unsigned char 
  1315 ;; Registers used:
  1316 ;;		wreg, status,2, status,0
  1317 ;; Tracked objects:
  1318 ;;		On entry : 0/0
  1319 ;;		On exit  : 0/0
  1320 ;;		Unchanged: 0/0
  1321 ;; Data sizes:     COMRAM   BANK0   BANK1   BANK2   BANK3   BANK4   BANK5   BANK6   BANK7   BANK8   BANK9  BANK10  BANK1
      +1  BANK12  BANK13  BANK14  BANK15  BANK16  BANK17  BANK18  BANK19  BANK20  BANK21  BANK22  BANK23  BANK24  BANK25  BANK2
      +6  BANK27  BANK28  BANK29  BANK30  BANK31
  1322 ;;      Params:         0       0       0       0       0       0       0       0       0       0       0       0       
      +0       0       0       0       0       0       0       0       0       0       0       0       0       0       0       
      +0       0       0       0       0       0
  1323 ;;      Locals:         2       0       0       0       0       0       0       0       0       0       0       0       
      +0       0       0       0       0       0       0       0       0       0       0       0       0       0       0       
      +0       0       0       0       0       0
  1324 ;;      Temps:          0       0       0       0       0       0       0       0       0       0       0       0       
      +0       0       0       0       0       0       0       0       0       0       0       0       0       0       0       
      +0       0       0       0       0       0
  1325 ;;      Totals:         2       0       0       0       0       0       0       0       0       0       0       0       
      +0       0       0       0       0       0       0       0       0       0       0       0       0       0       0       
      +0       0       0       0       0       0
  1326 ;;Total ram usage:        2 bytes
  1327 ;; Hardware stack levels used:    1
  1328 ;; Hardware stack levels required when called:    3
  1329 ;; This function calls:
  1330 ;;		Nothing
  1331 ;; This function is called by:
  1332 ;;		_send_answer
  1333 ;; This function uses a non-reentrant model
  1334 ;;
  1335                           
  1336                           	psect	text7
  1337  0026B4                     __ptext7:
  1338                           	callstack 0
  1339  0026B4                     _get_digit:
  1340                           	callstack 26
  1341                           
  1342                           ;incstack = 0
  1343                           ;get_digit@ch stored from wreg
  1344  0026B4  6E0F               	movwf	get_digit@ch^0,c
  1345  0026B6                     
  1346                           ;main.c: 123: uint8_t get_digit(char ch);main.c: 124: {;main.c: 125:     uint8_t digit =
      +                           ch - '0';
  1347  0026B6  500F               	movf	get_digit@ch^0,w,c
  1348  0026B8  0FD0               	addlw	208
  1349  0026BA  6E0E               	movwf	get_digit@digit^0,c
  1350                           
  1351                           ;main.c: 126:     if (ch >= '@')
  1352  0026BC  0E3F               	movlw	63
  1353  0026BE  640F               	cpfsgt	get_digit@ch^0,c
  1354  0026C0  EF64  F013         	goto	u951
  1355  0026C4  EF66  F013         	goto	u950
  1356  0026C8                     u951:
  1357  0026C8  EF69  F013         	goto	l100
  1358  0026CC                     u950:
  1359  0026CC                     
  1360                           ;main.c: 127:         digit = ch - '@';
  1361  0026CC  500F               	movf	get_digit@ch^0,w,c
  1362  0026CE  0FC0               	addlw	192
  1363  0026D0  6E0E               	movwf	get_digit@digit^0,c
  1364  0026D2                     l100:
  1365                           
  1366                           ;main.c: 129:     if (digit > 9)
  1367  0026D2  0E09               	movlw	9
  1368  0026D4  640E               	cpfsgt	get_digit@digit^0,c
  1369  0026D6  EF6F  F013         	goto	u961
  1370  0026DA  EF71  F013         	goto	u960
  1371  0026DE                     u961:
  1372  0026DE  EF73  F013         	goto	l101
  1373  0026E2                     u960:
  1374  0026E2                     
  1375                           ;main.c: 130:         digit = 0;
  1376  0026E2  0E00               	movlw	0
  1377  0026E4  6E0E               	movwf	get_digit@digit^0,c
  1378  0026E6                     l101:
  1379                           
  1380                           ;main.c: 132:     return digit;
  1381  0026E6  500E               	movf	get_digit@digit^0,w,c
  1382  0026E8  0012               	return		;funcret
  1383  0026EA                     __end_of_get_digit:
  1384                           	callstack 0
  1385                           
  1386 ;; *************** function ___lwmod *****************
  1387 ;; Defined at:
  1388 ;;		line 7 in file "C:\Program Files\Microchip\xc8\v2.20\pic\sources\c99\common\lwmod.c"
  1389 ;; Parameters:    Size  Location     Type
  1390 ;;  dividend        2   20[COMRAM] unsigned int 
  1391 ;;  divisor         2   22[COMRAM] unsigned int 
  1392 ;; Auto vars:     Size  Location     Type
  1393 ;;  counter         1   24[COMRAM] unsigned char 
  1394 ;; Return value:  Size  Location     Type
  1395 ;;                  2   20[COMRAM] unsigned int 
  1396 ;; Registers used:
  1397 ;;		wreg, status,2, status,0
  1398 ;; Tracked objects:
  1399 ;;		On entry : 0/0
  1400 ;;		On exit  : 0/0
  1401 ;;		Unchanged: 0/0
  1402 ;; Data sizes:     COMRAM   BANK0   BANK1   BANK2   BANK3   BANK4   BANK5   BANK6   BANK7   BANK8   BANK9  BANK10  BANK1
      +1  BANK12  BANK13  BANK14  BANK15  BANK16  BANK17  BANK18  BANK19  BANK20  BANK21  BANK22  BANK23  BANK24  BANK25  BANK2
      +6  BANK27  BANK28  BANK29  BANK30  BANK31
  1403 ;;      Params:         4       0       0       0       0       0       0       0       0       0       0       0       
      +0       0       0       0       0       0       0       0       0       0       0       0       0       0       0       
      +0       0       0       0       0       0
  1404 ;;      Locals:         1       0       0       0       0       0       0       0       0       0       0       0       
      +0       0       0       0       0       0       0       0       0       0       0       0       0       0       0       
      +0       0       0       0       0       0
  1405 ;;      Temps:          0       0       0       0       0       0       0       0       0       0       0       0       
      +0       0       0       0       0       0       0       0       0       0       0       0       0       0       0       
      +0       0       0       0       0       0
  1406 ;;      Totals:         5       0       0       0       0       0       0       0       0       0       0       0       
      +0       0       0       0       0       0       0       0       0       0       0       0       0       0       0       
      +0       0       0       0       0       0
  1407 ;;Total ram usage:        5 bytes
  1408 ;; Hardware stack levels used:    1
  1409 ;; Hardware stack levels required when called:    3
  1410 ;; This function calls:
  1411 ;;		Nothing
  1412 ;; This function is called by:
  1413 ;;		_send_answer
  1414 ;;		_printnum
  1415 ;; This function uses a non-reentrant model
  1416 ;;
  1417                           
  1418                           	psect	text8
  1419  002550                     __ptext8:
  1420                           	callstack 0
  1421  002550                     ___lwmod:
  1422                           	callstack 26
  1423  002550  5017               	movf	___lwmod@divisor^0,w,c
  1424  002552  1018               	iorwf	(___lwmod@divisor+1)^0,w,c
  1425  002554  B4D8               	btfsc	status,2,c
  1426  002556  EFAF  F012         	goto	u1001
  1427  00255A  EFB1  F012         	goto	u1000
  1428  00255E                     u1001:
  1429  00255E  EFD5  F012         	goto	l857
  1430  002562                     u1000:
  1431  002562  0E01               	movlw	1
  1432  002564  6E19               	movwf	___lwmod@counter^0,c
  1433  002566  EFB9  F012         	goto	l1871
  1434  00256A                     l1869:
  1435  00256A  90D8               	bcf	status,0,c
  1436  00256C  3617               	rlcf	___lwmod@divisor^0,f,c
  1437  00256E  3618               	rlcf	(___lwmod@divisor+1)^0,f,c
  1438  002570  2A19               	incf	___lwmod@counter^0,f,c
  1439  002572                     l1871:
  1440  002572  AE18               	btfss	(___lwmod@divisor+1)^0,7,c
  1441  002574  EFBE  F012         	goto	u1011
  1442  002578  EFC0  F012         	goto	u1010
  1443  00257C                     u1011:
  1444  00257C  EFB5  F012         	goto	l1869
  1445  002580                     u1010:
  1446  002580                     l1873:
  1447  002580  5017               	movf	___lwmod@divisor^0,w,c
  1448  002582  5C15               	subwf	___lwmod@dividend^0,w,c
  1449  002584  5018               	movf	(___lwmod@divisor+1)^0,w,c
  1450  002586  5816               	subwfb	(___lwmod@dividend+1)^0,w,c
  1451  002588  A0D8               	btfss	status,0,c
  1452  00258A  EFC9  F012         	goto	u1021
  1453  00258E  EFCB  F012         	goto	u1020
  1454  002592                     u1021:
  1455  002592  EFCF  F012         	goto	l1877
  1456  002596                     u1020:
  1457  002596  5017               	movf	___lwmod@divisor^0,w,c
  1458  002598  5E15               	subwf	___lwmod@dividend^0,f,c
  1459  00259A  5018               	movf	(___lwmod@divisor+1)^0,w,c
  1460  00259C  5A16               	subwfb	(___lwmod@dividend+1)^0,f,c
  1461  00259E                     l1877:
  1462  00259E  90D8               	bcf	status,0,c
  1463  0025A0  3218               	rrcf	(___lwmod@divisor+1)^0,f,c
  1464  0025A2  3217               	rrcf	___lwmod@divisor^0,f,c
  1465  0025A4  2E19               	decfsz	___lwmod@counter^0,f,c
  1466  0025A6  EFC0  F012         	goto	l1873
  1467  0025AA                     l857:
  1468  0025AA  C015  F015         	movff	___lwmod@dividend,?___lwmod
  1469  0025AE  C016  F016         	movff	___lwmod@dividend+1,?___lwmod+1
  1470  0025B2  0012               	return		;funcret
  1471  0025B4                     __end_of___lwmod:
  1472                           	callstack 0
  1473                           
  1474 ;; *************** function ___lwdiv *****************
  1475 ;; Defined at:
  1476 ;;		line 7 in file "C:\Program Files\Microchip\xc8\v2.20\pic\sources\c99\common\lwdiv.c"
  1477 ;; Parameters:    Size  Location     Type
  1478 ;;  dividend        2   13[COMRAM] unsigned int 
  1479 ;;  divisor         2   15[COMRAM] unsigned int 
  1480 ;; Auto vars:     Size  Location     Type
  1481 ;;  quotient        2   18[COMRAM] unsigned int 
  1482 ;;  counter         1   17[COMRAM] unsigned char 
  1483 ;; Return value:  Size  Location     Type
  1484 ;;                  2   13[COMRAM] unsigned int 
  1485 ;; Registers used:
  1486 ;;		wreg, status,2, status,0
  1487 ;; Tracked objects:
  1488 ;;		On entry : 0/0
  1489 ;;		On exit  : 0/0
  1490 ;;		Unchanged: 0/0
  1491 ;; Data sizes:     COMRAM   BANK0   BANK1   BANK2   BANK3   BANK4   BANK5   BANK6   BANK7   BANK8   BANK9  BANK10  BANK1
      +1  BANK12  BANK13  BANK14  BANK15  BANK16  BANK17  BANK18  BANK19  BANK20  BANK21  BANK22  BANK23  BANK24  BANK25  BANK2
      +6  BANK27  BANK28  BANK29  BANK30  BANK31
  1492 ;;      Params:         4       0       0       0       0       0       0       0       0       0       0       0       
      +0       0       0       0       0       0       0       0       0       0       0       0       0       0       0       
      +0       0       0       0       0       0
  1493 ;;      Locals:         3       0       0       0       0       0       0       0       0       0       0       0       
      +0       0       0       0       0       0       0       0       0       0       0       0       0       0       0       
      +0       0       0       0       0       0
  1494 ;;      Temps:          0       0       0       0       0       0       0       0       0       0       0       0       
      +0       0       0       0       0       0       0       0       0       0       0       0       0       0       0       
      +0       0       0       0       0       0
  1495 ;;      Totals:         7       0       0       0       0       0       0       0       0       0       0       0       
      +0       0       0       0       0       0       0       0       0       0       0       0       0       0       0       
      +0       0       0       0       0       0
  1496 ;;Total ram usage:        7 bytes
  1497 ;; Hardware stack levels used:    1
  1498 ;; Hardware stack levels required when called:    3
  1499 ;; This function calls:
  1500 ;;		Nothing
  1501 ;; This function is called by:
  1502 ;;		_send_answer
  1503 ;;		_printnum
  1504 ;; This function uses a non-reentrant model
  1505 ;;
  1506                           
  1507                           	psect	text9
  1508  002478                     __ptext9:
  1509                           	callstack 0
  1510  002478                     ___lwdiv:
  1511                           	callstack 26
  1512  002478  0E00               	movlw	0
  1513  00247A  6E14               	movwf	(___lwdiv@quotient+1)^0,c
  1514  00247C  0E00               	movlw	0
  1515  00247E  6E13               	movwf	___lwdiv@quotient^0,c
  1516  002480  5010               	movf	___lwdiv@divisor^0,w,c
  1517  002482  1011               	iorwf	(___lwdiv@divisor+1)^0,w,c
  1518  002484  B4D8               	btfsc	status,2,c
  1519  002486  EF47  F012         	goto	u971
  1520  00248A  EF49  F012         	goto	u970
  1521  00248E                     u971:
  1522  00248E  EF71  F012         	goto	l847
  1523  002492                     u970:
  1524  002492  0E01               	movlw	1
  1525  002494  6E12               	movwf	___lwdiv@counter^0,c
  1526  002496  EF51  F012         	goto	l1851
  1527  00249A                     l1849:
  1528  00249A  90D8               	bcf	status,0,c
  1529  00249C  3610               	rlcf	___lwdiv@divisor^0,f,c
  1530  00249E  3611               	rlcf	(___lwdiv@divisor+1)^0,f,c
  1531  0024A0  2A12               	incf	___lwdiv@counter^0,f,c
  1532  0024A2                     l1851:
  1533  0024A2  AE11               	btfss	(___lwdiv@divisor+1)^0,7,c
  1534  0024A4  EF56  F012         	goto	u981
  1535  0024A8  EF58  F012         	goto	u980
  1536  0024AC                     u981:
  1537  0024AC  EF4D  F012         	goto	l1849
  1538  0024B0                     u980:
  1539  0024B0                     l1853:
  1540  0024B0  90D8               	bcf	status,0,c
  1541  0024B2  3613               	rlcf	___lwdiv@quotient^0,f,c
  1542  0024B4  3614               	rlcf	(___lwdiv@quotient+1)^0,f,c
  1543  0024B6  5010               	movf	___lwdiv@divisor^0,w,c
  1544  0024B8  5C0E               	subwf	___lwdiv@dividend^0,w,c
  1545  0024BA  5011               	movf	(___lwdiv@divisor+1)^0,w,c
  1546  0024BC  580F               	subwfb	(___lwdiv@dividend+1)^0,w,c
  1547  0024BE  A0D8               	btfss	status,0,c
  1548  0024C0  EF64  F012         	goto	u991
  1549  0024C4  EF66  F012         	goto	u990
  1550  0024C8                     u991:
  1551  0024C8  EF6B  F012         	goto	l1861
  1552  0024CC                     u990:
  1553  0024CC  5010               	movf	___lwdiv@divisor^0,w,c
  1554  0024CE  5E0E               	subwf	___lwdiv@dividend^0,f,c
  1555  0024D0  5011               	movf	(___lwdiv@divisor+1)^0,w,c
  1556  0024D2  5A0F               	subwfb	(___lwdiv@dividend+1)^0,f,c
  1557  0024D4  8013               	bsf	___lwdiv@quotient^0,0,c
  1558  0024D6                     l1861:
  1559  0024D6  90D8               	bcf	status,0,c
  1560  0024D8  3211               	rrcf	(___lwdiv@divisor+1)^0,f,c
  1561  0024DA  3210               	rrcf	___lwdiv@divisor^0,f,c
  1562  0024DC  2E12               	decfsz	___lwdiv@counter^0,f,c
  1563  0024DE  EF58  F012         	goto	l1853
  1564  0024E2                     l847:
  1565  0024E2  C013  F00E         	movff	___lwdiv@quotient,?___lwdiv
  1566  0024E6  C014  F00F         	movff	___lwdiv@quotient+1,?___lwdiv+1
  1567  0024EA  0012               	return		;funcret
  1568  0024EC                     __end_of___lwdiv:
  1569                           	callstack 0
  1570                           
  1571 ;; *************** function _delay_start *****************
  1572 ;; Defined at:
  1573 ;;		line 79 in file "main.c"
  1574 ;; Parameters:    Size  Location     Type
  1575 ;;  delay           2   21[COMRAM] PTR struct .
  1576 ;;		 -> main@timeout(4), delay(4), 
  1577 ;;  value           2   23[COMRAM] unsigned short 
  1578 ;; Auto vars:     Size  Location     Type
  1579 ;;		None
  1580 ;; Return value:  Size  Location     Type
  1581 ;;                  1    wreg      void 
  1582 ;; Registers used:
  1583 ;;		wreg, fsr2l, fsr2h, status,2, status,0, cstack
  1584 ;; Tracked objects:
  1585 ;;		On entry : 0/0
  1586 ;;		On exit  : 0/0
  1587 ;;		Unchanged: 0/0
  1588 ;; Data sizes:     COMRAM   BANK0   BANK1   BANK2   BANK3   BANK4   BANK5   BANK6   BANK7   BANK8   BANK9  BANK10  BANK1
      +1  BANK12  BANK13  BANK14  BANK15  BANK16  BANK17  BANK18  BANK19  BANK20  BANK21  BANK22  BANK23  BANK24  BANK25  BANK2
      +6  BANK27  BANK28  BANK29  BANK30  BANK31
  1589 ;;      Params:         4       0       0       0       0       0       0       0       0       0       0       0       
      +0       0       0       0       0       0       0       0       0       0       0       0       0       0       0       
      +0       0       0       0       0       0
  1590 ;;      Locals:         0       0       0       0       0       0       0       0       0       0       0       0       
      +0       0       0       0       0       0       0       0       0       0       0       0       0       0       0       
      +0       0       0       0       0       0
  1591 ;;      Temps:          0       0       0       0       0       0       0       0       0       0       0       0       
      +0       0       0       0       0       0       0       0       0       0       0       0       0       0       0       
      +0       0       0       0       0       0
  1592 ;;      Totals:         4       0       0       0       0       0       0       0       0       0       0       0       
      +0       0       0       0       0       0       0       0       0       0       0       0       0       0       0       
      +0       0       0       0       0       0
  1593 ;;Total ram usage:        4 bytes
  1594 ;; Hardware stack levels used:    1
  1595 ;; Hardware stack levels required when called:    4
  1596 ;; This function calls:
  1597 ;;		_TMR0_ReadTimer
  1598 ;; This function is called by:
  1599 ;;		_main
  1600 ;; This function uses a non-reentrant model
  1601 ;;
  1602                           
  1603                           	psect	text10
  1604  0026EA                     __ptext10:
  1605                           	callstack 0
  1606  0026EA                     _delay_start:
  1607                           	callstack 26
  1608  0026EA                     
  1609                           ;main.c: 80:     delay->start = TMR0_ReadTimer();
  1610  0026EA  ECEA  F013         	call	_TMR0_ReadTimer	;wreg free
  1611  0026EE  0060  F05B  FFD9   	movff	delay_start@delay,fsr2l
  1612  0026F4  0060  F05F  FFDA   	movff	delay_start@delay+1,fsr2h
  1613  0026FA  0060  F03B  FFDE   	movff	?_TMR0_ReadTimer,postinc2
  1614  002700  0060  F03F  FFDD   	movff	?_TMR0_ReadTimer+1,postdec2
  1615  002706                     
  1616                           ;main.c: 81:     delay->delay = value;
  1617  002706  EE20 F002          	lfsr	2,2
  1618  00270A  5016               	movf	delay_start@delay^0,w,c
  1619  00270C  26D9               	addwf	fsr2l,f,c
  1620  00270E  5017               	movf	(delay_start@delay+1)^0,w,c
  1621  002710  22DA               	addwfc	fsr2h,f,c
  1622  002712  0060  F063  FFDE   	movff	delay_start@value,postinc2
  1623  002718  0060  F067  FFDD   	movff	delay_start@value+1,postdec2
  1624  00271E  0012               	return		;funcret
  1625  002720                     __end_of_delay_start:
  1626                           	callstack 0
  1627                           
  1628 ;; *************** function _TMR0_ReadTimer *****************
  1629 ;; Defined at:
  1630 ;;		line 100 in file "mcc_generated_files/tmr0.c"
  1631 ;; Parameters:    Size  Location     Type
  1632 ;;		None
  1633 ;; Auto vars:     Size  Location     Type
  1634 ;;  readVal         2   17[COMRAM] unsigned short 
  1635 ;;  readValHigh     1   20[COMRAM] unsigned char 
  1636 ;;  readValLow      1   19[COMRAM] unsigned char 
  1637 ;; Return value:  Size  Location     Type
  1638 ;;                  2   13[COMRAM] unsigned short 
  1639 ;; Registers used:
  1640 ;;		wreg, status,2
  1641 ;; Tracked objects:
  1642 ;;		On entry : 0/0
  1643 ;;		On exit  : 0/0
  1644 ;;		Unchanged: 0/0
  1645 ;; Data sizes:     COMRAM   BANK0   BANK1   BANK2   BANK3   BANK4   BANK5   BANK6   BANK7   BANK8   BANK9  BANK10  BANK1
      +1  BANK12  BANK13  BANK14  BANK15  BANK16  BANK17  BANK18  BANK19  BANK20  BANK21  BANK22  BANK23  BANK24  BANK25  BANK2
      +6  BANK27  BANK28  BANK29  BANK30  BANK31
  1646 ;;      Params:         2       0       0       0       0       0       0       0       0       0       0       0       
      +0       0       0       0       0       0       0       0       0       0       0       0       0       0       0       
      +0       0       0       0       0       0
  1647 ;;      Locals:         4       0       0       0       0       0       0       0       0       0       0       0       
      +0       0       0       0       0       0       0       0       0       0       0       0       0       0       0       
      +0       0       0       0       0       0
  1648 ;;      Temps:          2       0       0       0       0       0       0       0       0       0       0       0       
      +0       0       0       0       0       0       0       0       0       0       0       0       0       0       0       
      +0       0       0       0       0       0
  1649 ;;      Totals:         8       0       0       0       0       0       0       0       0       0       0       0       
      +0       0       0       0       0       0       0       0       0       0       0       0       0       0       0       
      +0       0       0       0       0       0
  1650 ;;Total ram usage:        8 bytes
  1651 ;; Hardware stack levels used:    1
  1652 ;; Hardware stack levels required when called:    3
  1653 ;; This function calls:
  1654 ;;		Nothing
  1655 ;; This function is called by:
  1656 ;;		_delay_start
  1657 ;;		_delay_is_expired
  1658 ;;		_delay_restart
  1659 ;; This function uses a non-reentrant model
  1660 ;;
  1661                           
  1662                           	psect	text11
  1663  0027D4                     __ptext11:
  1664                           	callstack 0
  1665  0027D4                     _TMR0_ReadTimer:
  1666                           	callstack 24
  1667  0027D4                     
  1668                           ;mcc_generated_files/tmr0.c: 102:     uint16_t readVal;;mcc_generated_files/tmr0.c: 103:
      +                               uint8_t readValLow;;mcc_generated_files/tmr0.c: 104:     uint8_t readValHigh;;mcc_g
      +                          enerated_files/tmr0.c: 106:     readValLow = TMR0L;
  1669  0027D4  006F FED8  F014    	movff	16310,TMR0_ReadTimer@readValLow	;volatile
  1670                           
  1671                           ;mcc_generated_files/tmr0.c: 107:     readValHigh = TMR0H;
  1672  0027DA  006F FEDC  F015    	movff	16311,TMR0_ReadTimer@readValHigh	;volatile
  1673  0027E0                     
  1674                           ;mcc_generated_files/tmr0.c: 108:     readVal = ((uint16_t)readValHigh << 8) + readValLo
      +                          w;
  1675  0027E0  5015               	movf	TMR0_ReadTimer@readValHigh^0,w,c
  1676  0027E2  6E10               	movwf	??_TMR0_ReadTimer^0,c
  1677  0027E4  5014               	movf	TMR0_ReadTimer@readValLow^0,w,c
  1678  0027E6  6E12               	movwf	TMR0_ReadTimer@readVal^0,c
  1679  0027E8  C010  F013         	movff	??_TMR0_ReadTimer,TMR0_ReadTimer@readVal+1
  1680  0027EC                     
  1681                           ;mcc_generated_files/tmr0.c: 110:     return readVal;
  1682  0027EC  C012  F00E         	movff	TMR0_ReadTimer@readVal,?_TMR0_ReadTimer
  1683  0027F0  C013  F00F         	movff	TMR0_ReadTimer@readVal+1,?_TMR0_ReadTimer+1
  1684  0027F4  0012               	return		;funcret
  1685  0027F6                     __end_of_TMR0_ReadTimer:
  1686                           	callstack 0
  1687                           
  1688 ;; *************** function _TMR0_StartTimer *****************
  1689 ;; Defined at:
  1690 ;;		line 88 in file "mcc_generated_files/tmr0.c"
  1691 ;; Parameters:    Size  Location     Type
  1692 ;;		None
  1693 ;; Auto vars:     Size  Location     Type
  1694 ;;		None
  1695 ;; Return value:  Size  Location     Type
  1696 ;;                  1    wreg      void 
  1697 ;; Registers used:
  1698 ;;		None
  1699 ;; Tracked objects:
  1700 ;;		On entry : 0/0
  1701 ;;		On exit  : 0/0
  1702 ;;		Unchanged: 0/0
  1703 ;; Data sizes:     COMRAM   BANK0   BANK1   BANK2   BANK3   BANK4   BANK5   BANK6   BANK7   BANK8   BANK9  BANK10  BANK1
      +1  BANK12  BANK13  BANK14  BANK15  BANK16  BANK17  BANK18  BANK19  BANK20  BANK21  BANK22  BANK23  BANK24  BANK25  BANK2
      +6  BANK27  BANK28  BANK29  BANK30  BANK31
  1704 ;;      Params:         0       0       0       0       0       0       0       0       0       0       0       0       
      +0       0       0       0       0       0       0       0       0       0       0       0       0       0       0       
      +0       0       0       0       0       0
  1705 ;;      Locals:         0       0       0       0       0       0       0       0       0       0       0       0       
      +0       0       0       0       0       0       0       0       0       0       0       0       0       0       0       
      +0       0       0       0       0       0
  1706 ;;      Temps:          0       0       0       0       0       0       0       0       0       0       0       0       
      +0       0       0       0       0       0       0       0       0       0       0       0       0       0       0       
      +0       0       0       0       0       0
  1707 ;;      Totals:         0       0       0       0       0       0       0       0       0       0       0       0       
      +0       0       0       0       0       0       0       0       0       0       0       0       0       0       0       
      +0       0       0       0       0       0
  1708 ;;Total ram usage:        0 bytes
  1709 ;; Hardware stack levels used:    1
  1710 ;; Hardware stack levels required when called:    3
  1711 ;; This function calls:
  1712 ;;		Nothing
  1713 ;; This function is called by:
  1714 ;;		_main
  1715 ;; This function uses a non-reentrant model
  1716 ;;
  1717                           
  1718                           	psect	text12
  1719  002884                     __ptext12:
  1720                           	callstack 0
  1721  002884                     _TMR0_StartTimer:
  1722                           	callstack 27
  1723  002884                     
  1724                           ;mcc_generated_files/tmr0.c: 91:     T0CON0bits.T0EN = 1;
  1725  002884  8EB8               	bsf	184,7,c	;volatile
  1726  002886  0012               	return		;funcret
  1727  002888                     __end_of_TMR0_StartTimer:
  1728                           	callstack 0
  1729                           
  1730 ;; *************** function _SYSTEM_Initialize *****************
  1731 ;; Defined at:
  1732 ;;		line 50 in file "mcc_generated_files/mcc.c"
  1733 ;; Parameters:    Size  Location     Type
  1734 ;;		None
  1735 ;; Auto vars:     Size  Location     Type
  1736 ;;		None
  1737 ;; Return value:  Size  Location     Type
  1738 ;;                  1    wreg      void 
  1739 ;; Registers used:
  1740 ;;		wreg, status,2, status,0, cstack
  1741 ;; Tracked objects:
  1742 ;;		On entry : 0/0
  1743 ;;		On exit  : 0/0
  1744 ;;		Unchanged: 0/0
  1745 ;; Data sizes:     COMRAM   BANK0   BANK1   BANK2   BANK3   BANK4   BANK5   BANK6   BANK7   BANK8   BANK9  BANK10  BANK1
      +1  BANK12  BANK13  BANK14  BANK15  BANK16  BANK17  BANK18  BANK19  BANK20  BANK21  BANK22  BANK23  BANK24  BANK25  BANK2
      +6  BANK27  BANK28  BANK29  BANK30  BANK31
  1746 ;;      Params:         0       0       0       0       0       0       0       0       0       0       0       0       
      +0       0       0       0       0       0       0       0       0       0       0       0       0       0       0       
      +0       0       0       0       0       0
  1747 ;;      Locals:         0       0       0       0       0       0       0       0       0       0       0       0       
      +0       0       0       0       0       0       0       0       0       0       0       0       0       0       0       
      +0       0       0       0       0       0
  1748 ;;      Temps:          0       0       0       0       0       0       0       0       0       0       0       0       
      +0       0       0       0       0       0       0       0       0       0       0       0       0       0       0       
      +0       0       0       0       0       0
  1749 ;;      Totals:         0       0       0       0       0       0       0       0       0       0       0       0       
      +0       0       0       0       0       0       0       0       0       0       0       0       0       0       0       
      +0       0       0       0       0       0
  1750 ;;Total ram usage:        0 bytes
  1751 ;; Hardware stack levels used:    1
  1752 ;; Hardware stack levels required when called:    4
  1753 ;; This function calls:
  1754 ;;		_OSCILLATOR_Initialize
  1755 ;;		_PIN_MANAGER_Initialize
  1756 ;;		_PMD_Initialize
  1757 ;;		_TMR0_Initialize
  1758 ;; This function is called by:
  1759 ;;		_main
  1760 ;; This function uses a non-reentrant model
  1761 ;;
  1762                           
  1763                           	psect	text13
  1764  00286E                     __ptext13:
  1765                           	callstack 0
  1766  00286E                     _SYSTEM_Initialize:
  1767                           	callstack 26
  1768  00286E                     
  1769                           ;mcc_generated_files/mcc.c: 52:     PMD_Initialize();
  1770  00286E  ECD8  F013         	call	_PMD_Initialize	;wreg free
  1771                           
  1772                           ;mcc_generated_files/mcc.c: 53:     PIN_MANAGER_Initialize();
  1773  002872  EC08  F013         	call	_PIN_MANAGER_Initialize	;wreg free
  1774                           
  1775                           ;mcc_generated_files/mcc.c: 54:     OSCILLATOR_Initialize();
  1776  002876  EC2B  F014         	call	_OSCILLATOR_Initialize	;wreg free
  1777  00287A                     
  1778                           ;mcc_generated_files/mcc.c: 55:     TMR0_Initialize();
  1779  00287A  ECAB  F013         	call	_TMR0_Initialize	;wreg free
  1780  00287E  0012               	return		;funcret
  1781  002880                     __end_of_SYSTEM_Initialize:
  1782                           	callstack 0
  1783                           
  1784 ;; *************** function _TMR0_Initialize *****************
  1785 ;; Defined at:
  1786 ;;		line 65 in file "mcc_generated_files/tmr0.c"
  1787 ;; Parameters:    Size  Location     Type
  1788 ;;		None
  1789 ;; Auto vars:     Size  Location     Type
  1790 ;;		None
  1791 ;; Return value:  Size  Location     Type
  1792 ;;                  1    wreg      void 
  1793 ;; Registers used:
  1794 ;;		wreg, status,2, status,0
  1795 ;; Tracked objects:
  1796 ;;		On entry : 0/0
  1797 ;;		On exit  : 0/0
  1798 ;;		Unchanged: 0/0
  1799 ;; Data sizes:     COMRAM   BANK0   BANK1   BANK2   BANK3   BANK4   BANK5   BANK6   BANK7   BANK8   BANK9  BANK10  BANK1
      +1  BANK12  BANK13  BANK14  BANK15  BANK16  BANK17  BANK18  BANK19  BANK20  BANK21  BANK22  BANK23  BANK24  BANK25  BANK2
      +6  BANK27  BANK28  BANK29  BANK30  BANK31
  1800 ;;      Params:         0       0       0       0       0       0       0       0       0       0       0       0       
      +0       0       0       0       0       0       0       0       0       0       0       0       0       0       0       
      +0       0       0       0       0       0
  1801 ;;      Locals:         0       0       0       0       0       0       0       0       0       0       0       0       
      +0       0       0       0       0       0       0       0       0       0       0       0       0       0       0       
      +0       0       0       0       0       0
  1802 ;;      Temps:          2       0       0       0       0       0       0       0       0       0       0       0       
      +0       0       0       0       0       0       0       0       0       0       0       0       0       0       0       
      +0       0       0       0       0       0
  1803 ;;      Totals:         2       0       0       0       0       0       0       0       0       0       0       0       
      +0       0       0       0       0       0       0       0       0       0       0       0       0       0       0       
      +0       0       0       0       0       0
  1804 ;;Total ram usage:        2 bytes
  1805 ;; Hardware stack levels used:    1
  1806 ;; Hardware stack levels required when called:    3
  1807 ;; This function calls:
  1808 ;;		Nothing
  1809 ;; This function is called by:
  1810 ;;		_SYSTEM_Initialize
  1811 ;; This function uses a non-reentrant model
  1812 ;;
  1813                           
  1814                           	psect	text14
  1815  002756                     __ptext14:
  1816                           	callstack 0
  1817  002756                     _TMR0_Initialize:
  1818                           	callstack 26
  1819  002756                     
  1820                           ;mcc_generated_files/tmr0.c: 70:     T0CON1 = 0x4E;
  1821  002756  0E4E               	movlw	78
  1822  002758  6EB9               	movwf	185,c	;volatile
  1823  00275A                     
  1824                           ;mcc_generated_files/tmr0.c: 73:     TMR0H = 0xFF;
  1825  00275A  68B7               	setf	183,c	;volatile
  1826                           
  1827                           ;mcc_generated_files/tmr0.c: 76:     TMR0L = 0xFE;
  1828  00275C  0EFE               	movlw	254
  1829  00275E  6EB6               	movwf	182,c	;volatile
  1830  002760                     
  1831                           ;mcc_generated_files/tmr0.c: 79:     timer0ReloadVal16bit = (TMR0H << 8) | TMR0L;
  1832  002760  50B6               	movf	182,w,c	;volatile
  1833  002762  006F FEDC  F00E    	movff	16311,??_TMR0_Initialize	;volatile
  1834  002768  6A0F               	clrf	(??_TMR0_Initialize+1)^0,c
  1835  00276A  C00E  F00F         	movff	??_TMR0_Initialize,??_TMR0_Initialize+1
  1836  00276E  6A0E               	clrf	??_TMR0_Initialize^0,c
  1837  002770  100E               	iorwf	??_TMR0_Initialize^0,w,c
  1838  002772  6E50               	movwf	_timer0ReloadVal16bit^0,c	;volatile
  1839  002774  500F               	movf	(??_TMR0_Initialize+1)^0,w,c
  1840  002776  6E51               	movwf	(_timer0ReloadVal16bit+1)^0,c	;volatile
  1841  002778                     
  1842                           ;mcc_generated_files/tmr0.c: 82:     PIR3bits.TMR0IF = 0;
  1843  002778  0139               	movlb	57	; () banked
  1844  00277A  9FA3               	bcf	163,7,b	;volatile
  1845  00277C                     
  1846                           ; BSR set to: 57
  1847                           ;mcc_generated_files/tmr0.c: 85:     T0CON0 = 0x90;
  1848  00277C  0E90               	movlw	144
  1849  00277E  6EB8               	movwf	184,c	;volatile
  1850  002780                     
  1851                           ; BSR set to: 57
  1852  002780  0012               	return		;funcret
  1853  002782                     __end_of_TMR0_Initialize:
  1854                           	callstack 0
  1855                           
  1856 ;; *************** function _PMD_Initialize *****************
  1857 ;; Defined at:
  1858 ;;		line 72 in file "mcc_generated_files/mcc.c"
  1859 ;; Parameters:    Size  Location     Type
  1860 ;;		None
  1861 ;; Auto vars:     Size  Location     Type
  1862 ;;		None
  1863 ;; Return value:  Size  Location     Type
  1864 ;;                  1    wreg      void 
  1865 ;; Registers used:
  1866 ;;		wreg, status,2
  1867 ;; Tracked objects:
  1868 ;;		On entry : 0/0
  1869 ;;		On exit  : 0/0
  1870 ;;		Unchanged: 0/0
  1871 ;; Data sizes:     COMRAM   BANK0   BANK1   BANK2   BANK3   BANK4   BANK5   BANK6   BANK7   BANK8   BANK9  BANK10  BANK1
      +1  BANK12  BANK13  BANK14  BANK15  BANK16  BANK17  BANK18  BANK19  BANK20  BANK21  BANK22  BANK23  BANK24  BANK25  BANK2
      +6  BANK27  BANK28  BANK29  BANK30  BANK31
  1872 ;;      Params:         0       0       0       0       0       0       0       0       0       0       0       0       
      +0       0       0       0       0       0       0       0       0       0       0       0       0       0       0       
      +0       0       0       0       0       0
  1873 ;;      Locals:         0       0       0       0       0       0       0       0       0       0       0       0       
      +0       0       0       0       0       0       0       0       0       0       0       0       0       0       0       
      +0       0       0       0       0       0
  1874 ;;      Temps:          0       0       0       0       0       0       0       0       0       0       0       0       
      +0       0       0       0       0       0       0       0       0       0       0       0       0       0       0       
      +0       0       0       0       0       0
  1875 ;;      Totals:         0       0       0       0       0       0       0       0       0       0       0       0       
      +0       0       0       0       0       0       0       0       0       0       0       0       0       0       0       
      +0       0       0       0       0       0
  1876 ;;Total ram usage:        0 bytes
  1877 ;; Hardware stack levels used:    1
  1878 ;; Hardware stack levels required when called:    3
  1879 ;; This function calls:
  1880 ;;		Nothing
  1881 ;; This function is called by:
  1882 ;;		_SYSTEM_Initialize
  1883 ;; This function uses a non-reentrant model
  1884 ;;
  1885                           
  1886                           	psect	text15
  1887  0027B0                     __ptext15:
  1888                           	callstack 0
  1889  0027B0                     _PMD_Initialize:
  1890                           	callstack 26
  1891  0027B0                     
  1892                           ;mcc_generated_files/mcc.c: 75:     PMD0 = 0x00;
  1893  0027B0  0E00               	movlw	0
  1894  0027B2  0139               	movlb	57	; () banked
  1895  0027B4  6FC0               	movwf	192,b	;volatile
  1896                           
  1897                           ;mcc_generated_files/mcc.c: 77:     PMD1 = 0x00;
  1898  0027B6  0E00               	movlw	0
  1899  0027B8  6FC1               	movwf	193,b	;volatile
  1900                           
  1901                           ;mcc_generated_files/mcc.c: 79:     PMD2 = 0x00;
  1902  0027BA  0E00               	movlw	0
  1903  0027BC  6FC2               	movwf	194,b	;volatile
  1904                           
  1905                           ;mcc_generated_files/mcc.c: 81:     PMD3 = 0x00;
  1906  0027BE  0E00               	movlw	0
  1907  0027C0  6FC3               	movwf	195,b	;volatile
  1908                           
  1909                           ;mcc_generated_files/mcc.c: 83:     PMD4 = 0x00;
  1910  0027C2  0E00               	movlw	0
  1911  0027C4  6FC4               	movwf	196,b	;volatile
  1912                           
  1913                           ;mcc_generated_files/mcc.c: 85:     PMD5 = 0x00;
  1914  0027C6  0E00               	movlw	0
  1915  0027C8  6FC5               	movwf	197,b	;volatile
  1916                           
  1917                           ;mcc_generated_files/mcc.c: 87:     PMD6 = 0x00;
  1918  0027CA  0E00               	movlw	0
  1919  0027CC  6FC6               	movwf	198,b	;volatile
  1920                           
  1921                           ;mcc_generated_files/mcc.c: 89:     PMD7 = 0x00;
  1922  0027CE  0E00               	movlw	0
  1923  0027D0  6FC7               	movwf	199,b	;volatile
  1924  0027D2                     
  1925                           ; BSR set to: 57
  1926  0027D2  0012               	return		;funcret
  1927  0027D4                     __end_of_PMD_Initialize:
  1928                           	callstack 0
  1929                           
  1930 ;; *************** function _PIN_MANAGER_Initialize *****************
  1931 ;; Defined at:
  1932 ;;		line 55 in file "mcc_generated_files/pin_manager.c"
  1933 ;; Parameters:    Size  Location     Type
  1934 ;;		None
  1935 ;; Auto vars:     Size  Location     Type
  1936 ;;		None
  1937 ;; Return value:  Size  Location     Type
  1938 ;;                  1    wreg      void 
  1939 ;; Registers used:
  1940 ;;		wreg, status,2
  1941 ;; Tracked objects:
  1942 ;;		On entry : 0/0
  1943 ;;		On exit  : 0/0
  1944 ;;		Unchanged: 0/0
  1945 ;; Data sizes:     COMRAM   BANK0   BANK1   BANK2   BANK3   BANK4   BANK5   BANK6   BANK7   BANK8   BANK9  BANK10  BANK1
      +1  BANK12  BANK13  BANK14  BANK15  BANK16  BANK17  BANK18  BANK19  BANK20  BANK21  BANK22  BANK23  BANK24  BANK25  BANK2
      +6  BANK27  BANK28  BANK29  BANK30  BANK31
  1946 ;;      Params:         0       0       0       0       0       0       0       0       0       0       0       0       
      +0       0       0       0       0       0       0       0       0       0       0       0       0       0       0       
      +0       0       0       0       0       0
  1947 ;;      Locals:         0       0       0       0       0       0       0       0       0       0       0       0       
      +0       0       0       0       0       0       0       0       0       0       0       0       0       0       0       
      +0       0       0       0       0       0
  1948 ;;      Temps:          0       0       0       0       0       0       0       0       0       0       0       0       
      +0       0       0       0       0       0       0       0       0       0       0       0       0       0       0       
      +0       0       0       0       0       0
  1949 ;;      Totals:         0       0       0       0       0       0       0       0       0       0       0       0       
      +0       0       0       0       0       0       0       0       0       0       0       0       0       0       0       
      +0       0       0       0       0       0
  1950 ;;Total ram usage:        0 bytes
  1951 ;; Hardware stack levels used:    1
  1952 ;; Hardware stack levels required when called:    3
  1953 ;; This function calls:
  1954 ;;		Nothing
  1955 ;; This function is called by:
  1956 ;;		_SYSTEM_Initialize
  1957 ;; This function uses a non-reentrant model
  1958 ;;
  1959                           
  1960                           	psect	text16
  1961  002610                     __ptext16:
  1962                           	callstack 0
  1963  002610                     _PIN_MANAGER_Initialize:
  1964                           	callstack 26
  1965  002610                     
  1966                           ;mcc_generated_files/pin_manager.c: 60:     LATA = 0x00;
  1967  002610  0E00               	movlw	0
  1968  002612  6EBA               	movwf	186,c	;volatile
  1969                           
  1970                           ;mcc_generated_files/pin_manager.c: 61:     LATB = 0x00;
  1971  002614  0E00               	movlw	0
  1972  002616  6EBB               	movwf	187,c	;volatile
  1973                           
  1974                           ;mcc_generated_files/pin_manager.c: 62:     LATC = 0x00;
  1975  002618  0E00               	movlw	0
  1976  00261A  6EBC               	movwf	188,c	;volatile
  1977  00261C                     
  1978                           ;mcc_generated_files/pin_manager.c: 67:     TRISA = 0xFF;
  1979  00261C  68C2               	setf	194,c	;volatile
  1980  00261E                     
  1981                           ;mcc_generated_files/pin_manager.c: 68:     TRISB = 0xFF;
  1982  00261E  68C3               	setf	195,c	;volatile
  1983  002620                     
  1984                           ;mcc_generated_files/pin_manager.c: 69:     TRISC = 0xFF;
  1985  002620  68C4               	setf	196,c	;volatile
  1986  002622                     
  1987                           ;mcc_generated_files/pin_manager.c: 74:     ANSELC = 0xFF;
  1988  002622  013A               	movlb	58	; () banked
  1989  002624  6960               	setf	96,b	;volatile
  1990  002626                     
  1991                           ; BSR set to: 58
  1992                           ;mcc_generated_files/pin_manager.c: 75:     ANSELB = 0xFF;
  1993  002626  6950               	setf	80,b	;volatile
  1994  002628                     
  1995                           ; BSR set to: 58
  1996                           ;mcc_generated_files/pin_manager.c: 76:     ANSELA = 0xFF;
  1997  002628  6940               	setf	64,b	;volatile
  1998                           
  1999                           ;mcc_generated_files/pin_manager.c: 81:     WPUE = 0x00;
  2000  00262A  0E00               	movlw	0
  2001  00262C  6F81               	movwf	129,b	;volatile
  2002                           
  2003                           ;mcc_generated_files/pin_manager.c: 82:     WPUB = 0x00;
  2004  00262E  0E00               	movlw	0
  2005  002630  6F51               	movwf	81,b	;volatile
  2006                           
  2007                           ;mcc_generated_files/pin_manager.c: 83:     WPUA = 0x00;
  2008  002632  0E00               	movlw	0
  2009  002634  6F41               	movwf	65,b	;volatile
  2010                           
  2011                           ;mcc_generated_files/pin_manager.c: 84:     WPUC = 0x00;
  2012  002636  0E00               	movlw	0
  2013  002638  6F61               	movwf	97,b	;volatile
  2014                           
  2015                           ;mcc_generated_files/pin_manager.c: 89:     RB1I2C = 0x00;
  2016  00263A  0E00               	movlw	0
  2017  00263C  6F5A               	movwf	90,b	;volatile
  2018                           
  2019                           ;mcc_generated_files/pin_manager.c: 90:     RB2I2C = 0x00;
  2020  00263E  0E00               	movlw	0
  2021  002640  6F5B               	movwf	91,b	;volatile
  2022                           
  2023                           ;mcc_generated_files/pin_manager.c: 91:     RC3I2C = 0x00;
  2024  002642  0E00               	movlw	0
  2025  002644  6F6A               	movwf	106,b	;volatile
  2026                           
  2027                           ;mcc_generated_files/pin_manager.c: 92:     RC4I2C = 0x00;
  2028  002646  0E00               	movlw	0
  2029  002648  6F6B               	movwf	107,b	;volatile
  2030                           
  2031                           ;mcc_generated_files/pin_manager.c: 97:     ODCONA = 0x00;
  2032  00264A  0E00               	movlw	0
  2033  00264C  6F42               	movwf	66,b	;volatile
  2034                           
  2035                           ;mcc_generated_files/pin_manager.c: 98:     ODCONB = 0x00;
  2036  00264E  0E00               	movlw	0
  2037  002650  6F52               	movwf	82,b	;volatile
  2038                           
  2039                           ;mcc_generated_files/pin_manager.c: 99:     ODCONC = 0x00;
  2040  002652  0E00               	movlw	0
  2041  002654  6F62               	movwf	98,b	;volatile
  2042  002656                     
  2043                           ; BSR set to: 58
  2044                           ;mcc_generated_files/pin_manager.c: 104:     SLRCONA = 0xFF;
  2045  002656  6943               	setf	67,b	;volatile
  2046  002658                     
  2047                           ; BSR set to: 58
  2048                           ;mcc_generated_files/pin_manager.c: 105:     SLRCONB = 0xFF;
  2049  002658  6953               	setf	83,b	;volatile
  2050  00265A                     
  2051                           ; BSR set to: 58
  2052                           ;mcc_generated_files/pin_manager.c: 106:     SLRCONC = 0xFF;
  2053  00265A  6963               	setf	99,b	;volatile
  2054  00265C                     
  2055                           ; BSR set to: 58
  2056                           ;mcc_generated_files/pin_manager.c: 111:     INLVLA = 0xFF;
  2057  00265C  6944               	setf	68,b	;volatile
  2058  00265E                     
  2059                           ; BSR set to: 58
  2060                           ;mcc_generated_files/pin_manager.c: 112:     INLVLB = 0xFF;
  2061  00265E  6954               	setf	84,b	;volatile
  2062  002660                     
  2063                           ; BSR set to: 58
  2064                           ;mcc_generated_files/pin_manager.c: 113:     INLVLC = 0xFF;
  2065  002660  6964               	setf	100,b	;volatile
  2066                           
  2067                           ;mcc_generated_files/pin_manager.c: 114:     INLVLE = 0x08;
  2068  002662  0E08               	movlw	8
  2069  002664  6F84               	movwf	132,b	;volatile
  2070  002666                     
  2071                           ; BSR set to: 58
  2072  002666  0012               	return		;funcret
  2073  002668                     __end_of_PIN_MANAGER_Initialize:
  2074                           	callstack 0
  2075                           
  2076 ;; *************** function _OSCILLATOR_Initialize *****************
  2077 ;; Defined at:
  2078 ;;		line 58 in file "mcc_generated_files/mcc.c"
  2079 ;; Parameters:    Size  Location     Type
  2080 ;;		None
  2081 ;; Auto vars:     Size  Location     Type
  2082 ;;		None
  2083 ;; Return value:  Size  Location     Type
  2084 ;;                  1    wreg      void 
  2085 ;; Registers used:
  2086 ;;		wreg, status,2
  2087 ;; Tracked objects:
  2088 ;;		On entry : 0/0
  2089 ;;		On exit  : 0/0
  2090 ;;		Unchanged: 0/0
  2091 ;; Data sizes:     COMRAM   BANK0   BANK1   BANK2   BANK3   BANK4   BANK5   BANK6   BANK7   BANK8   BANK9  BANK10  BANK1
      +1  BANK12  BANK13  BANK14  BANK15  BANK16  BANK17  BANK18  BANK19  BANK20  BANK21  BANK22  BANK23  BANK24  BANK25  BANK2
      +6  BANK27  BANK28  BANK29  BANK30  BANK31
  2092 ;;      Params:         0       0       0       0       0       0       0       0       0       0       0       0       
      +0       0       0       0       0       0       0       0       0       0       0       0       0       0       0       
      +0       0       0       0       0       0
  2093 ;;      Locals:         0       0       0       0       0       0       0       0       0       0       0       0       
      +0       0       0       0       0       0       0       0       0       0       0       0       0       0       0       
      +0       0       0       0       0       0
  2094 ;;      Temps:          0       0       0       0       0       0       0       0       0       0       0       0       
      +0       0       0       0       0       0       0       0       0       0       0       0       0       0       0       
      +0       0       0       0       0       0
  2095 ;;      Totals:         0       0       0       0       0       0       0       0       0       0       0       0       
      +0       0       0       0       0       0       0       0       0       0       0       0       0       0       0       
      +0       0       0       0       0       0
  2096 ;;Total ram usage:        0 bytes
  2097 ;; Hardware stack levels used:    1
  2098 ;; Hardware stack levels required when called:    3
  2099 ;; This function calls:
  2100 ;;		Nothing
  2101 ;; This function is called by:
  2102 ;;		_SYSTEM_Initialize
  2103 ;; This function uses a non-reentrant model
  2104 ;;
  2105                           
  2106                           	psect	text17
  2107  002856                     __ptext17:
  2108                           	callstack 0
  2109  002856                     _OSCILLATOR_Initialize:
  2110                           	callstack 26
  2111  002856                     
  2112                           ;mcc_generated_files/mcc.c: 61:     OSCCON1 = 0x60;
  2113  002856  0E60               	movlw	96
  2114  002858  0139               	movlb	57	; () banked
  2115  00285A  6FD9               	movwf	217,b	;volatile
  2116                           
  2117                           ;mcc_generated_files/mcc.c: 63:     OSCCON3 = 0x00;
  2118  00285C  0E00               	movlw	0
  2119  00285E  6FDB               	movwf	219,b	;volatile
  2120                           
  2121                           ;mcc_generated_files/mcc.c: 65:     OSCEN = 0x00;
  2122  002860  0E00               	movlw	0
  2123  002862  6FDD               	movwf	221,b	;volatile
  2124                           
  2125                           ;mcc_generated_files/mcc.c: 67:     OSCFRQ = 0x08;
  2126  002864  0E08               	movlw	8
  2127  002866  6FDF               	movwf	223,b	;volatile
  2128                           
  2129                           ;mcc_generated_files/mcc.c: 69:     OSCTUNE = 0x00;
  2130  002868  0E00               	movlw	0
  2131  00286A  6FDE               	movwf	222,b	;volatile
  2132  00286C                     
  2133                           ; BSR set to: 57
  2134  00286C  0012               	return		;funcret
  2135  00286E                     __end_of_OSCILLATOR_Initialize:
  2136                           	callstack 0
  2137                           
  2138 ;; *************** function _U1RX_ISR *****************
  2139 ;; Defined at:
  2140 ;;		line 212 in file "main.c"
  2141 ;; Parameters:    Size  Location     Type
  2142 ;;		None
  2143 ;; Auto vars:     Size  Location     Type
  2144 ;;  znak            1   12[COMRAM] unsigned char 
  2145 ;; Return value:  Size  Location     Type
  2146 ;;                  1    wreg      void 
  2147 ;; Registers used:
  2148 ;;		wreg, fsr2l, fsr2h, status,2, status,0, cstack
  2149 ;; Tracked objects:
  2150 ;;		On entry : 0/0
  2151 ;;		On exit  : 0/0
  2152 ;;		Unchanged: 0/0
  2153 ;; Data sizes:     COMRAM   BANK0   BANK1   BANK2   BANK3   BANK4   BANK5   BANK6   BANK7   BANK8   BANK9  BANK10  BANK1
      +1  BANK12  BANK13  BANK14  BANK15  BANK16  BANK17  BANK18  BANK19  BANK20  BANK21  BANK22  BANK23  BANK24  BANK25  BANK2
      +6  BANK27  BANK28  BANK29  BANK30  BANK31
  2154 ;;      Params:         0       0       0       0       0       0       0       0       0       0       0       0       
      +0       0       0       0       0       0       0       0       0       0       0       0       0       0       0       
      +0       0       0       0       0       0
  2155 ;;      Locals:         1       0       0       0       0       0       0       0       0       0       0       0       
      +0       0       0       0       0       0       0       0       0       0       0       0       0       0       0       
      +0       0       0       0       0       0
  2156 ;;      Temps:          0       0       0       0       0       0       0       0       0       0       0       0       
      +0       0       0       0       0       0       0       0       0       0       0       0       0       0       0       
      +0       0       0       0       0       0
  2157 ;;      Totals:         1       0       0       0       0       0       0       0       0       0       0       0       
      +0       0       0       0       0       0       0       0       0       0       0       0       0       0       0       
      +0       0       0       0       0       0
  2158 ;;Total ram usage:        1 bytes
  2159 ;; Hardware stack levels used:    1
  2160 ;; Hardware stack levels required when called:    2
  2161 ;; This function calls:
  2162 ;;		_state_rx_byte
  2163 ;;		i2_delay_start
  2164 ;; This function is called by:
  2165 ;;		Interrupt level 2
  2166 ;; This function uses a non-reentrant model
  2167 ;;
  2168                           
  2169                           	psect	text18
  2170  002784                     __ptext18:
  2171                           	callstack 0
  2172  002784                     _U1RX_ISR:
  2173                           	callstack 24
  2174  002784                     
  2175                           ;main.c: 215:     char znak = U1RXB;
  2176  002784  006F F7A0  F00D    	movff	15848,U1RX_ISR@znak	;volatile
  2177  00278A                     
  2178                           ;main.c: 216:     state_rx_byte(&rx_state, znak);
  2179  00278A  0E3E               	movlw	low _rx_state
  2180  00278C  6E01               	movwf	state_rx_byte@st^0,c
  2181  00278E  0E00               	movlw	high _rx_state
  2182  002790  6E02               	movwf	(state_rx_byte@st+1)^0,c
  2183  002792  C00D  F003         	movff	U1RX_ISR@znak,state_rx_byte@ch
  2184  002796  EC0F  F010         	call	_state_rx_byte	;wreg free
  2185                           
  2186                           ;main.c: 218:     delay_start(&delay, 10);
  2187  00279A  0E48               	movlw	low _delay
  2188  00279C  6E09               	movwf	i2delay_start@delay^0,c
  2189  00279E  0E00               	movlw	high _delay
  2190  0027A0  6E0A               	movwf	(i2delay_start@delay+1)^0,c
  2191  0027A2  0E00               	movlw	0
  2192  0027A4  6E0C               	movwf	(i2delay_start@value+1)^0,c
  2193  0027A6  0E0A               	movlw	10
  2194  0027A8  6E0B               	movwf	i2delay_start@value^0,c
  2195  0027AA  EC90  F013         	call	i2_delay_start	;wreg free
  2196  0027AE  0011               	retfie		f
  2197  0027B0                     __end_of_U1RX_ISR:
  2198                           	callstack 0
  2199                           
  2200 ;; *************** function i2_delay_start *****************
  2201 ;; Defined at:
  2202 ;;		line 79 in file "main.c"
  2203 ;; Parameters:    Size  Location     Type
  2204 ;;  delay           2    8[COMRAM] PTR struct .
  2205 ;;		 -> main@timeout(4), delay(4), 
  2206 ;;  value           2   10[COMRAM] unsigned short 
  2207 ;; Auto vars:     Size  Location     Type
  2208 ;;		None
  2209 ;; Return value:  Size  Location     Type
  2210 ;;                  1    wreg      void 
  2211 ;; Registers used:
  2212 ;;		wreg, fsr2l, fsr2h, status,2, status,0, cstack
  2213 ;; Tracked objects:
  2214 ;;		On entry : 0/0
  2215 ;;		On exit  : 0/0
  2216 ;;		Unchanged: 0/0
  2217 ;; Data sizes:     COMRAM   BANK0   BANK1   BANK2   BANK3   BANK4   BANK5   BANK6   BANK7   BANK8   BANK9  BANK10  BANK1
      +1  BANK12  BANK13  BANK14  BANK15  BANK16  BANK17  BANK18  BANK19  BANK20  BANK21  BANK22  BANK23  BANK24  BANK25  BANK2
      +6  BANK27  BANK28  BANK29  BANK30  BANK31
  2218 ;;      Params:         4       0       0       0       0       0       0       0       0       0       0       0       
      +0       0       0       0       0       0       0       0       0       0       0       0       0       0       0       
      +0       0       0       0       0       0
  2219 ;;      Locals:         0       0       0       0       0       0       0       0       0       0       0       0       
      +0       0       0       0       0       0       0       0       0       0       0       0       0       0       0       
      +0       0       0       0       0       0
  2220 ;;      Temps:          0       0       0       0       0       0       0       0       0       0       0       0       
      +0       0       0       0       0       0       0       0       0       0       0       0       0       0       0       
      +0       0       0       0       0       0
  2221 ;;      Totals:         4       0       0       0       0       0       0       0       0       0       0       0       
      +0       0       0       0       0       0       0       0       0       0       0       0       0       0       0       
      +0       0       0       0       0       0
  2222 ;;Total ram usage:        4 bytes
  2223 ;; Hardware stack levels used:    1
  2224 ;; Hardware stack levels required when called:    1
  2225 ;; This function calls:
  2226 ;;		i2_TMR0_ReadTimer
  2227 ;; This function is called by:
  2228 ;;		_U1RX_ISR
  2229 ;; This function uses a non-reentrant model
  2230 ;;
  2231                           
  2232                           	psect	text19
  2233  002720                     __ptext19:
  2234                           	callstack 0
  2235  002720                     i2_delay_start:
  2236                           	callstack 24
  2237  002720                     
  2238                           ;main.c: 80:     delay->start = TMR0_ReadTimer();
  2239  002720  ECFB  F013         	call	i2_TMR0_ReadTimer	;wreg free
  2240  002724  0060  F027  FFD9   	movff	i2delay_start@delay,fsr2l
  2241  00272A  0060  F02B  FFDA   	movff	i2delay_start@delay+1,fsr2h
  2242  002730  0060  F007  FFDE   	movff	?i2_TMR0_ReadTimer,postinc2
  2243  002736  0060  F00B  FFDD   	movff	?i2_TMR0_ReadTimer+1,postdec2
  2244  00273C                     
  2245                           ;main.c: 81:     delay->delay = value;
  2246  00273C  EE20 F002          	lfsr	2,2
  2247  002740  5009               	movf	i2delay_start@delay^0,w,c
  2248  002742  26D9               	addwf	fsr2l,f,c
  2249  002744  500A               	movf	(i2delay_start@delay+1)^0,w,c
  2250  002746  22DA               	addwfc	fsr2h,f,c
  2251  002748  0060  F02F  FFDE   	movff	i2delay_start@value,postinc2
  2252  00274E  0060  F033  FFDD   	movff	i2delay_start@value+1,postdec2
  2253  002754  0012               	return		;funcret
  2254  002756                     __end_ofi2_delay_start:
  2255                           	callstack 0
  2256                           
  2257 ;; *************** function i2_TMR0_ReadTimer *****************
  2258 ;; Defined at:
  2259 ;;		line 100 in file "mcc_generated_files/tmr0.c"
  2260 ;; Parameters:    Size  Location     Type
  2261 ;;		None
  2262 ;; Auto vars:     Size  Location     Type
  2263 ;;  readVal         2    4[COMRAM] unsigned short 
  2264 ;;  readValHigh     1    7[COMRAM] unsigned char 
  2265 ;;  readValLow      1    6[COMRAM] unsigned char 
  2266 ;; Return value:  Size  Location     Type
  2267 ;;                  2    0[COMRAM] unsigned short 
  2268 ;; Registers used:
  2269 ;;		wreg, status,2
  2270 ;; Tracked objects:
  2271 ;;		On entry : 0/0
  2272 ;;		On exit  : 0/0
  2273 ;;		Unchanged: 0/0
  2274 ;; Data sizes:     COMRAM   BANK0   BANK1   BANK2   BANK3   BANK4   BANK5   BANK6   BANK7   BANK8   BANK9  BANK10  BANK1
      +1  BANK12  BANK13  BANK14  BANK15  BANK16  BANK17  BANK18  BANK19  BANK20  BANK21  BANK22  BANK23  BANK24  BANK25  BANK2
      +6  BANK27  BANK28  BANK29  BANK30  BANK31
  2275 ;;      Params:         2       0       0       0       0       0       0       0       0       0       0       0       
      +0       0       0       0       0       0       0       0       0       0       0       0       0       0       0       
      +0       0       0       0       0       0
  2276 ;;      Locals:         4       0       0       0       0       0       0       0       0       0       0       0       
      +0       0       0       0       0       0       0       0       0       0       0       0       0       0       0       
      +0       0       0       0       0       0
  2277 ;;      Temps:          2       0       0       0       0       0       0       0       0       0       0       0       
      +0       0       0       0       0       0       0       0       0       0       0       0       0       0       0       
      +0       0       0       0       0       0
  2278 ;;      Totals:         8       0       0       0       0       0       0       0       0       0       0       0       
      +0       0       0       0       0       0       0       0       0       0       0       0       0       0       0       
      +0       0       0       0       0       0
  2279 ;;Total ram usage:        8 bytes
  2280 ;; Hardware stack levels used:    1
  2281 ;; This function calls:
  2282 ;;		Nothing
  2283 ;; This function is called by:
  2284 ;;		i2_delay_start
  2285 ;; This function uses a non-reentrant model
  2286 ;;
  2287                           
  2288                           	psect	text20
  2289  0027F6                     __ptext20:
  2290                           	callstack 0
  2291  0027F6                     i2_TMR0_ReadTimer:
  2292                           	callstack 24
  2293  0027F6                     
  2294                           ;mcc_generated_files/tmr0.c: 102:     uint16_t readVal;;mcc_generated_files/tmr0.c: 103:
      +                               uint8_t readValLow;;mcc_generated_files/tmr0.c: 104:     uint8_t readValHigh;;mcc_g
      +                          enerated_files/tmr0.c: 106:     readValLow = TMR0L;
  2295  0027F6  006F FED8  F007    	movff	16310,i2TMR0_ReadTimer@readValLow	;volatile
  2296                           
  2297                           ;mcc_generated_files/tmr0.c: 107:     readValHigh = TMR0H;
  2298  0027FC  006F FEDC  F008    	movff	16311,i2TMR0_ReadTimer@readValHigh	;volatile
  2299  002802                     
  2300                           ;mcc_generated_files/tmr0.c: 108:     readVal = ((uint16_t)readValHigh << 8) + readValLo
      +                          w;
  2301  002802  5008               	movf	i2TMR0_ReadTimer@readValHigh^0,w,c
  2302  002804  6E03               	movwf	??i2_TMR0_ReadTimer^0,c
  2303  002806  5007               	movf	i2TMR0_ReadTimer@readValLow^0,w,c
  2304  002808  6E05               	movwf	i2TMR0_ReadTimer@readVal^0,c
  2305  00280A  C003  F006         	movff	??i2_TMR0_ReadTimer,i2TMR0_ReadTimer@readVal+1
  2306  00280E                     
  2307                           ;mcc_generated_files/tmr0.c: 110:     return readVal;
  2308  00280E  C005  F001         	movff	i2TMR0_ReadTimer@readVal,?i2_TMR0_ReadTimer
  2309  002812  C006  F002         	movff	i2TMR0_ReadTimer@readVal+1,?i2_TMR0_ReadTimer+1
  2310  002816  0012               	return		;funcret
  2311  002818                     __end_ofi2_TMR0_ReadTimer:
  2312                           	callstack 0
  2313                           
  2314 ;; *************** function _state_rx_byte *****************
  2315 ;; Defined at:
  2316 ;;		line 5 in file "state_machine.c"
  2317 ;; Parameters:    Size  Location     Type
  2318 ;;  st              2    0[COMRAM] PTR volatile struct stat
  2319 ;;		 -> rx_state(10), 
  2320 ;;  ch              1    2[COMRAM] unsigned char 
  2321 ;; Auto vars:     Size  Location     Type
  2322 ;;		None
  2323 ;; Return value:  Size  Location     Type
  2324 ;;                  1    wreg      void 
  2325 ;; Registers used:
  2326 ;;		wreg, fsr2l, fsr2h, status,2, status,0
  2327 ;; Tracked objects:
  2328 ;;		On entry : 0/0
  2329 ;;		On exit  : 0/0
  2330 ;;		Unchanged: 0/0
  2331 ;; Data sizes:     COMRAM   BANK0   BANK1   BANK2   BANK3   BANK4   BANK5   BANK6   BANK7   BANK8   BANK9  BANK10  BANK1
      +1  BANK12  BANK13  BANK14  BANK15  BANK16  BANK17  BANK18  BANK19  BANK20  BANK21  BANK22  BANK23  BANK24  BANK25  BANK2
      +6  BANK27  BANK28  BANK29  BANK30  BANK31
  2332 ;;      Params:         3       0       0       0       0       0       0       0       0       0       0       0       
      +0       0       0       0       0       0       0       0       0       0       0       0       0       0       0       
      +0       0       0       0       0       0
  2333 ;;      Locals:         0       0       0       0       0       0       0       0       0       0       0       0       
      +0       0       0       0       0       0       0       0       0       0       0       0       0       0       0       
      +0       0       0       0       0       0
  2334 ;;      Temps:          1       0       0       0       0       0       0       0       0       0       0       0       
      +0       0       0       0       0       0       0       0       0       0       0       0       0       0       0       
      +0       0       0       0       0       0
  2335 ;;      Totals:         4       0       0       0       0       0       0       0       0       0       0       0       
      +0       0       0       0       0       0       0       0       0       0       0       0       0       0       0       
      +0       0       0       0       0       0
  2336 ;;Total ram usage:        4 bytes
  2337 ;; Hardware stack levels used:    1
  2338 ;; This function calls:
  2339 ;;		Nothing
  2340 ;; This function is called by:
  2341 ;;		_U1RX_ISR
  2342 ;; This function uses a non-reentrant model
  2343 ;;
  2344                           
  2345                           	psect	text21
  2346  00201E                     __ptext21:
  2347                           	callstack 0
  2348  00201E                     _state_rx_byte:
  2349                           	callstack 25
  2350  00201E                     
  2351                           ;state_machine.c: 6:     if (st->FRAME_READY == 1)
  2352  00201E  EE20 F009          	lfsr	2,9
  2353  002022  5001               	movf	state_rx_byte@st^0,w,c
  2354  002024  26D9               	addwf	fsr2l,f,c
  2355  002026  5002               	movf	(state_rx_byte@st+1)^0,w,c
  2356  002028  22DA               	addwfc	fsr2h,f,c
  2357  00202A  A0DF               	btfss	indf2,0,c
  2358  00202C  EF1A  F010         	goto	i2u69_41
  2359  002030  EF1C  F010         	goto	i2u69_40
  2360  002034                     i2u69_41:
  2361  002034  EF1E  F010         	goto	i2l1595
  2362  002038                     i2u69_40:
  2363  002038  EFDE  F010         	goto	i2l207
  2364  00203C                     i2l1595:
  2365  00203C  0E7B               	movlw	123
  2366  00203E  1803               	xorwf	state_rx_byte@ch^0,w,c
  2367  002040  A4D8               	btfss	status,2,c
  2368  002042  EF25  F010         	goto	i2u70_41
  2369  002046  EF27  F010         	goto	i2u70_40
  2370  00204A                     i2u70_41:
  2371  00204A  EF31  F010         	goto	i2l1599
  2372  00204E                     i2u70_40:
  2373  00204E                     
  2374                           ;state_machine.c: 11:         st->ile = 1;
  2375  00204E  0060  F007  FFD9   	movff	state_rx_byte@st,fsr2l
  2376  002054  0060  F00B  FFDA   	movff	state_rx_byte@st+1,fsr2h
  2377  00205A  0E01               	movlw	1
  2378  00205C  6EDF               	movwf	indf2,c
  2379                           
  2380                           ;state_machine.c: 12:     }
  2381  00205E  EFDE  F010         	goto	i2l207
  2382  002062                     i2l1599:
  2383  002062  0060  F007  FFD9   	movff	state_rx_byte@st,fsr2l
  2384  002068  0060  F00B  FFDA   	movff	state_rx_byte@st+1,fsr2h
  2385  00206E  04DE               	decf	postinc2,w,c
  2386  002070  B4D8               	btfsc	status,2,c
  2387  002072  EF3D  F010         	goto	i2u71_41
  2388  002076  EF3F  F010         	goto	i2u71_40
  2389  00207A                     i2u71_41:
  2390  00207A  EF6C  F010         	goto	i2l1607
  2391  00207E                     i2u71_40:
  2392  00207E  0060  F007  FFD9   	movff	state_rx_byte@st,fsr2l
  2393  002084  0060  F00B  FFDA   	movff	state_rx_byte@st+1,fsr2h
  2394  00208A  0E02               	movlw	2
  2395  00208C  18DE               	xorwf	postinc2,w,c
  2396  00208E  B4D8               	btfsc	status,2,c
  2397  002090  EF4C  F010         	goto	i2u72_41
  2398  002094  EF4E  F010         	goto	i2u72_40
  2399  002098                     i2u72_41:
  2400  002098  EF6C  F010         	goto	i2l1607
  2401  00209C                     i2u72_40:
  2402  00209C  0060  F007  FFD9   	movff	state_rx_byte@st,fsr2l
  2403  0020A2  0060  F00B  FFDA   	movff	state_rx_byte@st+1,fsr2h
  2404  0020A8  0E03               	movlw	3
  2405  0020AA  18DE               	xorwf	postinc2,w,c
  2406  0020AC  B4D8               	btfsc	status,2,c
  2407  0020AE  EF5B  F010         	goto	i2u73_41
  2408  0020B2  EF5D  F010         	goto	i2u73_40
  2409  0020B6                     i2u73_41:
  2410  0020B6  EF6C  F010         	goto	i2l1607
  2411  0020BA                     i2u73_40:
  2412  0020BA  0060  F007  FFD9   	movff	state_rx_byte@st,fsr2l
  2413  0020C0  0060  F00B  FFDA   	movff	state_rx_byte@st+1,fsr2h
  2414  0020C6  0E04               	movlw	4
  2415  0020C8  18DE               	xorwf	postinc2,w,c
  2416  0020CA  A4D8               	btfss	status,2,c
  2417  0020CC  EF6A  F010         	goto	i2u74_41
  2418  0020D0  EF6C  F010         	goto	i2u74_40
  2419  0020D4                     i2u74_41:
  2420  0020D4  EF86  F010         	goto	i2l1611
  2421  0020D8                     i2u74_40:
  2422  0020D8                     i2l1607:
  2423                           
  2424                           ;state_machine.c: 14:     {;state_machine.c: 15:         st->buf[st->ile - 1] = ch;
  2425  0020D8  0060  F007  FFD9   	movff	state_rx_byte@st,fsr2l
  2426  0020DE  0060  F00B  FFDA   	movff	state_rx_byte@st+1,fsr2h
  2427  0020E4  50DF               	movf	indf2,w,c
  2428  0020E6  6E04               	movwf	??_state_rx_byte^0,c
  2429  0020E8  5004               	movf	??_state_rx_byte^0,w,c
  2430  0020EA  2401               	addwf	state_rx_byte@st^0,w,c
  2431  0020EC  6ED9               	movwf	fsr2l,c
  2432  0020EE  0E00               	movlw	0
  2433  0020F0  2002               	addwfc	(state_rx_byte@st+1)^0,w,c
  2434  0020F2  6EDA               	movwf	fsr2h,c
  2435  0020F4  0060  F00F  FFDF   	movff	state_rx_byte@ch,indf2
  2436  0020FA                     
  2437                           ;state_machine.c: 16:         st->ile++;
  2438  0020FA  0060  F007  FFD9   	movff	state_rx_byte@st,fsr2l
  2439  002100  0060  F00B  FFDA   	movff	state_rx_byte@st+1,fsr2h
  2440  002106  2ADF               	incf	indf2,f,c
  2441                           
  2442                           ;state_machine.c: 17:     }
  2443  002108  EFDE  F010         	goto	i2l207
  2444  00210C                     i2l1611:
  2445  00210C  0060  F007  FFD9   	movff	state_rx_byte@st,fsr2l
  2446  002112  0060  F00B  FFDA   	movff	state_rx_byte@st+1,fsr2h
  2447  002118  0E05               	movlw	5
  2448  00211A  18DE               	xorwf	postinc2,w,c
  2449  00211C  B4D8               	btfsc	status,2,c
  2450  00211E  EF93  F010         	goto	i2u75_41
  2451  002122  EF95  F010         	goto	i2u75_40
  2452  002126                     i2u75_41:
  2453  002126  EFA4  F010         	goto	i2l1615
  2454  00212A                     i2u75_40:
  2455  00212A  0060  F007  FFD9   	movff	state_rx_byte@st,fsr2l
  2456  002130  0060  F00B  FFDA   	movff	state_rx_byte@st+1,fsr2h
  2457  002136  0E06               	movlw	6
  2458  002138  18DE               	xorwf	postinc2,w,c
  2459  00213A  A4D8               	btfss	status,2,c
  2460  00213C  EFA2  F010         	goto	i2u76_41
  2461  002140  EFA4  F010         	goto	i2u76_40
  2462  002144                     i2u76_41:
  2463  002144  EFAD  F010         	goto	i2l1617
  2464  002148                     i2u76_40:
  2465  002148                     i2l1615:
  2466                           
  2467                           ;state_machine.c: 19:         st->ile++;
  2468  002148  0060  F007  FFD9   	movff	state_rx_byte@st,fsr2l
  2469  00214E  0060  F00B  FFDA   	movff	state_rx_byte@st+1,fsr2h
  2470  002154  2ADF               	incf	indf2,f,c
  2471                           
  2472                           ;state_machine.c: 20:     }
  2473  002156  EFDE  F010         	goto	i2l207
  2474  00215A                     i2l1617:
  2475  00215A  0060  F007  FFD9   	movff	state_rx_byte@st,fsr2l
  2476  002160  0060  F00B  FFDA   	movff	state_rx_byte@st+1,fsr2h
  2477  002166  0E07               	movlw	7
  2478  002168  18DE               	xorwf	postinc2,w,c
  2479  00216A  A4D8               	btfss	status,2,c
  2480  00216C  EFBA  F010         	goto	i2u77_41
  2481  002170  EFBC  F010         	goto	i2u77_40
  2482  002174                     i2u77_41:
  2483  002174  EFD6  F010         	goto	i2l1625
  2484  002178                     i2u77_40:
  2485  002178                     
  2486                           ;state_machine.c: 22:         if (ch == '}')
  2487  002178  0E7D               	movlw	125
  2488  00217A  1803               	xorwf	state_rx_byte@ch^0,w,c
  2489  00217C  A4D8               	btfss	status,2,c
  2490  00217E  EFC3  F010         	goto	i2u78_41
  2491  002182  EFC5  F010         	goto	i2u78_40
  2492  002186                     i2u78_41:
  2493  002186  EFCC  F010         	goto	i2l1623
  2494  00218A                     i2u78_40:
  2495  00218A                     
  2496                           ;state_machine.c: 23:             st->FRAME_READY = 1;
  2497  00218A  EE20 F009          	lfsr	2,9
  2498  00218E  5001               	movf	state_rx_byte@st^0,w,c
  2499  002190  26D9               	addwf	fsr2l,f,c
  2500  002192  5002               	movf	(state_rx_byte@st+1)^0,w,c
  2501  002194  22DA               	addwfc	fsr2h,f,c
  2502  002196  80DF               	bsf	indf2,0,c
  2503  002198                     i2l1623:
  2504                           
  2505                           ;state_machine.c: 24:         st->ile = 0;
  2506  002198  0060  F007  FFD9   	movff	state_rx_byte@st,fsr2l
  2507  00219E  0060  F00B  FFDA   	movff	state_rx_byte@st+1,fsr2h
  2508  0021A4  0E00               	movlw	0
  2509  0021A6  6EDF               	movwf	indf2,c
  2510                           
  2511                           ;state_machine.c: 25:     }
  2512  0021A8  EFDE  F010         	goto	i2l207
  2513  0021AC                     i2l1625:
  2514                           
  2515                           ;state_machine.c: 27:     {;state_machine.c: 28:         st->ile = 0;
  2516  0021AC  0060  F007  FFD9   	movff	state_rx_byte@st,fsr2l
  2517  0021B2  0060  F00B  FFDA   	movff	state_rx_byte@st+1,fsr2h
  2518  0021B8  0E00               	movlw	0
  2519  0021BA  6EDF               	movwf	indf2,c
  2520  0021BC                     i2l207:
  2521  0021BC  0012               	return		;funcret
  2522  0021BE                     __end_of_state_rx_byte:
  2523                           	callstack 0
  2524                           
  2525                           ;
  2526                           ; Interrupt Vector Table @ 0x8
  2527                           ;
  2528                           
  2529                           	psect	ivt0x8
  2530  000008                     __pivt0x8:
  2531                           	callstack 0
  2532  000008                     ivt0x8_base:
  2533                           	callstack 0
  2534                           
  2535                           ; Vector 0 : SWINT
  2536  000008  002B               	dw	ivt0x8_undefint shr (0+2)
  2537                           
  2538                           ; Vector 1 : HLVD
  2539  00000A  002B               	dw	ivt0x8_undefint shr (0+2)
  2540                           
  2541                           ; Vector 2 : OSF
  2542  00000C  002B               	dw	ivt0x8_undefint shr (0+2)
  2543                           
  2544                           ; Vector 3 : CSW
  2545  00000E  002B               	dw	ivt0x8_undefint shr (0+2)
  2546                           
  2547                           ; Vector 4 : NVM
  2548  000010  002B               	dw	ivt0x8_undefint shr (0+2)
  2549                           
  2550                           ; Vector 5 : SCAN
  2551  000012  002B               	dw	ivt0x8_undefint shr (0+2)
  2552                           
  2553                           ; Vector 6 : CRC
  2554  000014  002B               	dw	ivt0x8_undefint shr (0+2)
  2555                           
  2556                           ; Vector 7 : IOC
  2557  000016  002B               	dw	ivt0x8_undefint shr (0+2)
  2558                           
  2559                           ; Vector 8 : INT0
  2560  000018  002B               	dw	ivt0x8_undefint shr (0+2)
  2561                           
  2562                           ; Vector 9 : ZCD
  2563  00001A  002B               	dw	ivt0x8_undefint shr (0+2)
  2564                           
  2565                           ; Vector 10 : AD
  2566  00001C  002B               	dw	ivt0x8_undefint shr (0+2)
  2567                           
  2568                           ; Vector 11 : ADT
  2569  00001E  002B               	dw	ivt0x8_undefint shr (0+2)
  2570                           
  2571                           ; Vector 12 : CMP1
  2572  000020  002B               	dw	ivt0x8_undefint shr (0+2)
  2573                           
  2574                           ; Vector 13 : SMT1
  2575  000022  002B               	dw	ivt0x8_undefint shr (0+2)
  2576                           
  2577                           ; Vector 14 : SMT1PRA
  2578  000024  002B               	dw	ivt0x8_undefint shr (0+2)
  2579                           
  2580                           ; Vector 15 : SMT1PRW
  2581  000026  002B               	dw	ivt0x8_undefint shr (0+2)
  2582                           
  2583                           ; Vector 16 : DMA1SCNT
  2584  000028  002B               	dw	ivt0x8_undefint shr (0+2)
  2585                           
  2586                           ; Vector 17 : DMA1DCNT
  2587  00002A  002B               	dw	ivt0x8_undefint shr (0+2)
  2588                           
  2589                           ; Vector 18 : DMA1OR
  2590  00002C  002B               	dw	ivt0x8_undefint shr (0+2)
  2591                           
  2592                           ; Vector 19 : DMA1A
  2593  00002E  002B               	dw	ivt0x8_undefint shr (0+2)
  2594                           
  2595                           ; Vector 20 : SPI1RX
  2596  000030  002B               	dw	ivt0x8_undefint shr (0+2)
  2597                           
  2598                           ; Vector 21 : SPI1TX
  2599  000032  002B               	dw	ivt0x8_undefint shr (0+2)
  2600                           
  2601                           ; Vector 22 : SPI1
  2602  000034  002B               	dw	ivt0x8_undefint shr (0+2)
  2603                           
  2604                           ; Vector 23 : I2C1RX
  2605  000036  002B               	dw	ivt0x8_undefint shr (0+2)
  2606                           
  2607                           ; Vector 24 : I2C1TX
  2608  000038  002B               	dw	ivt0x8_undefint shr (0+2)
  2609                           
  2610                           ; Vector 25 : I2C1
  2611  00003A  002B               	dw	ivt0x8_undefint shr (0+2)
  2612                           
  2613                           ; Vector 26 : I2C1E
  2614  00003C  002B               	dw	ivt0x8_undefint shr (0+2)
  2615                           
  2616                           ; Vector 27 : U1RX
  2617  00003E  09E1               	dw	_U1RX_ISR shr (0+2)
  2618                           
  2619                           ; Vector 28 : U1TX
  2620  000040  002B               	dw	ivt0x8_undefint shr (0+2)
  2621                           
  2622                           ; Vector 29 : U1E
  2623  000042  002B               	dw	ivt0x8_undefint shr (0+2)
  2624                           
  2625                           ; Vector 30 : U1
  2626  000044  002B               	dw	ivt0x8_undefint shr (0+2)
  2627                           
  2628                           ; Vector 31 : TMR0
  2629  000046  002B               	dw	ivt0x8_undefint shr (0+2)
  2630                           
  2631                           ; Vector 32 : TMR1
  2632  000048  002B               	dw	ivt0x8_undefint shr (0+2)
  2633                           
  2634                           ; Vector 33 : TMR1G
  2635  00004A  002B               	dw	ivt0x8_undefint shr (0+2)
  2636                           
  2637                           ; Vector 34 : TMR2
  2638  00004C  002B               	dw	ivt0x8_undefint shr (0+2)
  2639                           
  2640                           ; Vector 35 : CCP1
  2641  00004E  002B               	dw	ivt0x8_undefint shr (0+2)
  2642                           
  2643                           ; Vector 36 : Undefined
  2644  000050  002B               	dw	ivt0x8_undefint shr (0+2)
  2645                           
  2646                           ; Vector 37 : NCO1
  2647  000052  002B               	dw	ivt0x8_undefint shr (0+2)
  2648                           
  2649                           ; Vector 38 : CWG1
  2650  000054  002B               	dw	ivt0x8_undefint shr (0+2)
  2651                           
  2652                           ; Vector 39 : CLC1
  2653  000056  002B               	dw	ivt0x8_undefint shr (0+2)
  2654                           
  2655                           ; Vector 40 : INT1
  2656  000058  002B               	dw	ivt0x8_undefint shr (0+2)
  2657                           
  2658                           ; Vector 41 : CMP2
  2659  00005A  002B               	dw	ivt0x8_undefint shr (0+2)
  2660                           
  2661                           ; Vector 42 : DMA2SCNT
  2662  00005C  002B               	dw	ivt0x8_undefint shr (0+2)
  2663                           
  2664                           ; Vector 43 : DMA2DCNT
  2665  00005E  002B               	dw	ivt0x8_undefint shr (0+2)
  2666                           
  2667                           ; Vector 44 : DMA2OR
  2668  000060  002B               	dw	ivt0x8_undefint shr (0+2)
  2669                           
  2670                           ; Vector 45 : DMA2A
  2671  000062  002B               	dw	ivt0x8_undefint shr (0+2)
  2672                           
  2673                           ; Vector 46 : I2C2RX
  2674  000064  002B               	dw	ivt0x8_undefint shr (0+2)
  2675                           
  2676                           ; Vector 47 : I2C2TX
  2677  000066  002B               	dw	ivt0x8_undefint shr (0+2)
  2678                           
  2679                           ; Vector 48 : I2C2
  2680  000068  002B               	dw	ivt0x8_undefint shr (0+2)
  2681                           
  2682                           ; Vector 49 : I2C2E
  2683  00006A  002B               	dw	ivt0x8_undefint shr (0+2)
  2684                           
  2685                           ; Vector 50 : U2RX
  2686  00006C  002B               	dw	ivt0x8_undefint shr (0+2)
  2687                           
  2688                           ; Vector 51 : U2TX
  2689  00006E  002B               	dw	ivt0x8_undefint shr (0+2)
  2690                           
  2691                           ; Vector 52 : U2E
  2692  000070  002B               	dw	ivt0x8_undefint shr (0+2)
  2693                           
  2694                           ; Vector 53 : U2
  2695  000072  002B               	dw	ivt0x8_undefint shr (0+2)
  2696                           
  2697                           ; Vector 54 : TMR3
  2698  000074  002B               	dw	ivt0x8_undefint shr (0+2)
  2699                           
  2700                           ; Vector 55 : TMR3G
  2701  000076  002B               	dw	ivt0x8_undefint shr (0+2)
  2702                           
  2703                           ; Vector 56 : TMR4
  2704  000078  002B               	dw	ivt0x8_undefint shr (0+2)
  2705                           
  2706                           ; Vector 57 : CCP2
  2707  00007A  002B               	dw	ivt0x8_undefint shr (0+2)
  2708                           
  2709                           ; Vector 58 : Undefined
  2710  00007C  002B               	dw	ivt0x8_undefint shr (0+2)
  2711                           
  2712                           ; Vector 59 : CWG2
  2713  00007E  002B               	dw	ivt0x8_undefint shr (0+2)
  2714                           
  2715                           ; Vector 60 : CLC2
  2716  000080  002B               	dw	ivt0x8_undefint shr (0+2)
  2717                           
  2718                           ; Vector 61 : INT2
  2719  000082  002B               	dw	ivt0x8_undefint shr (0+2)
  2720                           
  2721                           ; Vector 62 : Undefined
  2722  000084  002B               	dw	ivt0x8_undefint shr (0+2)
  2723                           
  2724                           ; Vector 63 : Undefined
  2725  000086  002B               	dw	ivt0x8_undefint shr (0+2)
  2726                           
  2727                           ; Vector 64 : Undefined
  2728  000088  002B               	dw	ivt0x8_undefint shr (0+2)
  2729                           
  2730                           ; Vector 65 : Undefined
  2731  00008A  002B               	dw	ivt0x8_undefint shr (0+2)
  2732                           
  2733                           ; Vector 66 : Undefined
  2734  00008C  002B               	dw	ivt0x8_undefint shr (0+2)
  2735                           
  2736                           ; Vector 67 : Undefined
  2737  00008E  002B               	dw	ivt0x8_undefint shr (0+2)
  2738                           
  2739                           ; Vector 68 : Undefined
  2740  000090  002B               	dw	ivt0x8_undefint shr (0+2)
  2741                           
  2742                           ; Vector 69 : Undefined
  2743  000092  002B               	dw	ivt0x8_undefint shr (0+2)
  2744                           
  2745                           ; Vector 70 : TMR5
  2746  000094  002B               	dw	ivt0x8_undefint shr (0+2)
  2747                           
  2748                           ; Vector 71 : TMR5G
  2749  000096  002B               	dw	ivt0x8_undefint shr (0+2)
  2750                           
  2751                           ; Vector 72 : TMR6
  2752  000098  002B               	dw	ivt0x8_undefint shr (0+2)
  2753                           
  2754                           ; Vector 73 : CCP3
  2755  00009A  002B               	dw	ivt0x8_undefint shr (0+2)
  2756                           
  2757                           ; Vector 74 : CWG3
  2758  00009C  002B               	dw	ivt0x8_undefint shr (0+2)
  2759                           
  2760                           ; Vector 75 : CLC3
  2761  00009E  002B               	dw	ivt0x8_undefint shr (0+2)
  2762                           
  2763                           ; Vector 76 : Undefined
  2764  0000A0  002B               	dw	ivt0x8_undefint shr (0+2)
  2765                           
  2766                           ; Vector 77 : Undefined
  2767  0000A2  002B               	dw	ivt0x8_undefint shr (0+2)
  2768                           
  2769                           ; Vector 78 : Undefined
  2770  0000A4  002B               	dw	ivt0x8_undefint shr (0+2)
  2771                           
  2772                           ; Vector 79 : Undefined
  2773  0000A6  002B               	dw	ivt0x8_undefint shr (0+2)
  2774                           
  2775                           ; Vector 80 : CCP4
  2776  0000A8  002B               	dw	ivt0x8_undefint shr (0+2)
  2777                           
  2778                           ; Vector 81 : CLC4
  2779  0000AA  002B               	dw	ivt0x8_undefint shr (0+2)
  2780  0000AC                     ivt0x8_undefint:
  2781                           	callstack 0
  2782  0000AC  00FF               	reset	
  2783                           
  2784                           	psect	rparam
  2785  0000                     
  2786                           	psect	idloc
  2787                           
  2788                           ;Config register IDLOC0 @ 0x200000
  2789                           ;	unspecified, using default values
  2790  200000                     	org	2097152
  2791  200000  0FFF               	dw	4095
  2792                           
  2793                           ;Config register IDLOC1 @ 0x200002
  2794                           ;	unspecified, using default values
  2795  200002                     	org	2097154
  2796  200002  0FFF               	dw	4095
  2797                           
  2798                           ;Config register IDLOC2 @ 0x200004
  2799                           ;	unspecified, using default values
  2800  200004                     	org	2097156
  2801  200004  0FFF               	dw	4095
  2802                           
  2803                           ;Config register IDLOC3 @ 0x200006
  2804                           ;	unspecified, using default values
  2805  200006                     	org	2097158
  2806  200006  0FFF               	dw	4095
  2807                           
  2808                           ;Config register IDLOC4 @ 0x200008
  2809                           ;	unspecified, using default values
  2810  200008                     	org	2097160
  2811  200008  0FFF               	dw	4095
  2812                           
  2813                           ;Config register IDLOC5 @ 0x20000A
  2814                           ;	unspecified, using default values
  2815  20000A                     	org	2097162
  2816  20000A  0FFF               	dw	4095
  2817                           
  2818                           ;Config register IDLOC6 @ 0x20000C
  2819                           ;	unspecified, using default values
  2820  20000C                     	org	2097164
  2821  20000C  0FFF               	dw	4095
  2822                           
  2823                           ;Config register IDLOC7 @ 0x20000E
  2824                           ;	unspecified, using default values
  2825  20000E                     	org	2097166
  2826  20000E  0FFF               	dw	4095
  2827                           
  2828                           	psect	config
  2829                           
  2830                           ;Config register CONFIG1L @ 0x300000
  2831                           ;	External Oscillator Selection
  2832                           ;	FEXTOSC = OFF, Oscillator not enabled
  2833                           ;	Reset Oscillator Selection
  2834                           ;	RSTOSC = HFINTOSC_64MHZ, HFINTOSC with HFFRQ = 64 MHz and CDIV = 1:1
  2835  300000                     	org	3145728
  2836  300000  8C                 	db	140
  2837                           
  2838                           ;Config register CONFIG1H @ 0x300001
  2839                           ;	Clock out Enable bit
  2840                           ;	CLKOUTEN = OFF, CLKOUT function is disabled
  2841                           ;	PRLOCKED One-Way Set Enable bit
  2842                           ;	PR1WAY = ON, PRLOCK bit can be cleared and set only once
  2843                           ;	Clock Switch Enable bit
  2844                           ;	CSWEN = ON, Writing to NOSC and NDIV is allowed
  2845                           ;	Fail-Safe Clock Monitor Enable bit
  2846                           ;	FCMEN = ON, Fail-Safe Clock Monitor enabled
  2847  300001                     	org	3145729
  2848  300001  FF                 	db	255
  2849                           
  2850                           ;Config register CONFIG2L @ 0x300002
  2851                           ;	MCLR Enable bit
  2852                           ;	MCLRE = INTMCLR, If LVP = 0, MCLR pin function is port defined function; If LVP =1, RE
      +                          3 pin fuction is MCLR
  2853                           ;	Power-up timer selection bits
  2854                           ;	PWRTS = PWRT_1, PWRT set at 1ms
  2855                           ;	Multi-vector enable bit
  2856                           ;	MVECEN = ON, Multi-vector enabled, Vector table used for interrupts
  2857                           ;	IVTLOCK bit One-way set enable bit
  2858                           ;	IVT1WAY = ON, IVTLOCK bit can be cleared and set only once
  2859                           ;	Low Power BOR Enable bit
  2860                           ;	LPBOREN = OFF, ULPBOR disabled
  2861                           ;	Brown-out Reset Enable bits
  2862                           ;	BOREN = SBORDIS, Brown-out Reset enabled , SBOREN bit is ignored
  2863  300002                     	org	3145730
  2864  300002  F8                 	db	248
  2865                           
  2866                           ;Config register CONFIG2H @ 0x300003
  2867                           ;	Brown-out Reset Voltage Selection bits
  2868                           ;	BORV = VBOR_2P45, Brown-out Reset Voltage (VBOR) set to 2.45V
  2869                           ;	ZCD Disable bit
  2870                           ;	ZCD = OFF, ZCD disabled. ZCD can be enabled by setting the ZCDSEN bit of ZCDCON
  2871                           ;	PPSLOCK bit One-Way Set Enable bit
  2872                           ;	PPS1WAY = ON, PPSLOCK bit can be cleared and set only once; PPS registers remain locke
      +                          d after one clear/set cycle
  2873                           ;	Stack Full/Underflow Reset Enable bit
  2874                           ;	STVREN = ON, Stack full/underflow will cause Reset
  2875                           ;	Debugger Enable bit
  2876                           ;	DEBUG = OFF, Background debugger disabled
  2877                           ;	Extended Instruction Set Enable bit
  2878                           ;	XINST = OFF, Extended Instruction Set and Indexed Addressing Mode disabled
  2879  300003                     	org	3145731
  2880  300003  FF                 	db	255
  2881                           
  2882                           ;Config register CONFIG3L @ 0x300004
  2883                           ;	WDT Period selection bits
  2884                           ;	WDTCPS = WDTCPS_31, Divider ratio 1:65536; software control of WDTPS
  2885                           ;	WDT operating mode
  2886                           ;	WDTE = OFF, WDT Disabled; SWDTEN is ignored
  2887  300004                     	org	3145732
  2888  300004  9F                 	db	159
  2889                           
  2890                           ;Config register CONFIG3H @ 0x300005
  2891                           ;	WDT Window Select bits
  2892                           ;	WDTCWS = WDTCWS_7, window always open (100%); software control; keyed access not requi
      +                          red
  2893                           ;	WDT input clock selector
  2894                           ;	WDTCCS = SC, Software Control
  2895  300005                     	org	3145733
  2896  300005  FF                 	db	255
  2897                           
  2898                           ;Config register CONFIG4L @ 0x300006
  2899                           ;	Boot Block Size selection bits
  2900                           ;	BBSIZE = BBSIZE_512, Boot Block size is 512 words
  2901                           ;	Boot Block enable bit
  2902                           ;	BBEN = OFF, Boot block disabled
  2903                           ;	Storage Area Flash enable bit
  2904                           ;	SAFEN = OFF, SAF disabled
  2905                           ;	Application Block write protection bit
  2906                           ;	WRTAPP = OFF, Application Block not write protected
  2907  300006                     	org	3145734
  2908  300006  FF                 	db	255
  2909                           
  2910                           ;Config register CONFIG4H @ 0x300007
  2911                           ;	Configuration Register Write Protection bit
  2912                           ;	WRTB = OFF, Configuration registers (300000-30000Bh) not write-protected
  2913                           ;	Boot Block Write Protection bit
  2914                           ;	WRTC = OFF, Boot Block (000000-0007FFh) not write-protected
  2915                           ;	Data EEPROM Write Protection bit
  2916                           ;	WRTD = OFF, Data EEPROM not write-protected
  2917                           ;	SAF Write protection bit
  2918                           ;	WRTSAF = OFF, SAF not Write Protected
  2919                           ;	Low Voltage Programming Enable bit
  2920                           ;	LVP = OFF, HV on MCLR/VPP must be used for programming
  2921  300007                     	org	3145735
  2922  300007  DF                 	db	223
  2923                           
  2924                           ;Config register CONFIG5L @ 0x300008
  2925                           ;	PFM and Data EEPROM Code Protection bit
  2926                           ;	CP = OFF, PFM and Data EEPROM code protection disabled
  2927  300008                     	org	3145736
  2928  300008  FF                 	db	255
  2929                           
  2930                           ;Config register CONFIG5H @ 0x300009
  2931                           ;	unspecified, using default values
  2932  300009                     	org	3145737
  2933  300009  FF                 	db	255
  2934                           tosu	equ	0x3FFF
  2935                           tosh	equ	0x3FFE
  2936                           tosl	equ	0x3FFD
  2937                           stkptr	equ	0x3FFC
  2938                           pclatu	equ	0x3FFB
  2939                           pclath	equ	0x3FFA
  2940                           pcl	equ	0x3FF9
  2941                           tblptru	equ	0x3FF8
  2942                           tblptrh	equ	0x3FF7
  2943                           tblptrl	equ	0x3FF6
  2944                           tablat	equ	0x3FF5
  2945                           prodh	equ	0x3FF4
  2946                           prodl	equ	0x3FF3
  2947                           indf0	equ	0x3FEF
  2948                           postinc0	equ	0x3FEE
  2949                           postdec0	equ	0x3FED
  2950                           preinc0	equ	0x3FEC
  2951                           plusw0	equ	0x3FEB
  2952                           fsr0h	equ	0x3FEA
  2953                           fsr0l	equ	0x3FE9
  2954                           wreg	equ	0x3FE8
  2955                           indf1	equ	0x3FE7
  2956                           postinc1	equ	0x3FE6
  2957                           postdec1	equ	0x3FE5
  2958                           preinc1	equ	0x3FE4
  2959                           plusw1	equ	0x3FE3
  2960                           fsr1h	equ	0x3FE2
  2961                           fsr1l	equ	0x3FE1
  2962                           bsr	equ	0x3FE0
  2963                           indf2	equ	0x3FDF
  2964                           postinc2	equ	0x3FDE
  2965                           postdec2	equ	0x3FDD
  2966                           preinc2	equ	0x3FDC
  2967                           plusw2	equ	0x3FDB
  2968                           fsr2h	equ	0x3FDA
  2969                           fsr2l	equ	0x3FD9
  2970                           status	equ	0x3FD8

Data Sizes:
    Strings     8
    Constant    20
    Data        4
    BSS         35
    Persistent  2
    Stack       0

Auto Spaces:
    Space          Size  Autos    Used
    COMRAM           95     49      81
    BANK0           160      6      15
    BANK1           256      0       0
    BANK2           256      0       0
    BANK3           256      0       0
    BANK4           256      0       0
    BANK5           256      0       0
    BANK6           256      0       0
    BANK7           256      0       0
    BANK8           256      0       0
    BANK9           256      0       0
    BANK10          256      0       0
    BANK11          256      0       0
    BANK12          256      0       0
    BANK13          256      0       0
    BANK14          256      0       0
    BANK15          256      0       0
    BANK16          256      0       0
    BANK17          256      0       0
    BANK18          256      0       0
    BANK19          256      0       0
    BANK20          256      0       0
    BANK21          256      0       0
    BANK22          256      0       0
    BANK23          256      0       0
    BANK24          256      0       0
    BANK25          256      0       0
    BANK26          256      0       0
    BANK27          256      0       0
    BANK28          256      0       0
    BANK29          256      0       0
    BANK30          256      0       0
    BANK31          256      0       0

Pointer List with Targets:

    send_request@st	PTR volatile struct state size(2) Largest target is 10
		 -> rx_state(COMRAM[10]), 

    state_is_frame_ready@st	PTR volatile struct state size(2) Largest target is 10
		 -> rx_state(COMRAM[10]), 

    state_reset@st	PTR volatile struct state size(2) Largest target is 10
		 -> rx_state(COMRAM[10]), 

    state_rx_byte@st	PTR volatile struct state size(2) Largest target is 10
		 -> rx_state(COMRAM[10]), 

    handlers.handler	PTR FTN(unsigned char ,unsigned char ,)void  size(3) Largest target is 1
		 -> handler_command_d(), handler_command_b(), handler_command_s(), handler_command_a(), 

    send_answer@st	PTR volatile struct state size(2) Largest target is 10
		 -> rx_state(COMRAM[10]), 

    prints@str	PTR const unsigned char  size(2) Largest target is 9
		 -> printnum@frm(COMRAM[8]), STR_4(CODE[2]), STR_3(CODE[2]), STR_2(CODE[2]), 
		 -> STR_1(CODE[2]), send_answer@cmd(COMRAM[9]), send_request@cmd(COMRAM[4]), 

    delay_is_expired@delay	PTR struct . size(2) Largest target is 4
		 -> main@timeout(BANK0[4]), delay(COMRAM[4]), 

    delay_start@delay	PTR struct . size(2) Largest target is 4
		 -> main@timeout(BANK0[4]), delay(COMRAM[4]), 

    answer_call_handler@handlers.handler	PTR FTN(unsigned char ,unsigned char ,)void  size(3) Largest target is 1
		 -> handler_command_d(), handler_command_b(), handler_command_s(), handler_command_a(), 

    S25cmd_handler$handler	PTR FTN(unsigned char ,unsigned char ,)void  size(3) Largest target is 1
		 -> handler_command_d(), handler_command_b(), handler_command_s(), handler_command_a(), 

    Handler.handler	PTR FTN(unsigned char ,unsigned char ,)void  size(3) Largest target is 1
		 -> handler_command_d(), handler_command_b(), handler_command_s(), handler_command_a(), 


Critical Paths under _main in COMRAM

    _main->_send_answer
    _send_request->_prints
    _send_answer->_prints
    _prints->_delay_is_expired
    _delay_is_expired->_TMR0_ReadTimer
    ___lwmod->___lwdiv
    _delay_start->_TMR0_ReadTimer
    _SYSTEM_Initialize->_TMR0_Initialize

Critical Paths under _U1RX_ISR in COMRAM

    _U1RX_ISR->i2_delay_start
    i2_delay_start->i2_TMR0_ReadTimer

Critical Paths under _main in BANK0

    None.

Critical Paths under _U1RX_ISR in BANK0

    None.

Critical Paths under _main in BANK1

    None.

Critical Paths under _U1RX_ISR in BANK1

    None.

Critical Paths under _main in BANK2

    None.

Critical Paths under _U1RX_ISR in BANK2

    None.

Critical Paths under _main in BANK3

    None.

Critical Paths under _U1RX_ISR in BANK3

    None.

Critical Paths under _main in BANK4

    None.

Critical Paths under _U1RX_ISR in BANK4

    None.

Critical Paths under _main in BANK5

    None.

Critical Paths under _U1RX_ISR in BANK5

    None.

Critical Paths under _main in BANK6

    None.

Critical Paths under _U1RX_ISR in BANK6

    None.

Critical Paths under _main in BANK7

    None.

Critical Paths under _U1RX_ISR in BANK7

    None.

Critical Paths under _main in BANK8

    None.

Critical Paths under _U1RX_ISR in BANK8

    None.

Critical Paths under _main in BANK9

    None.

Critical Paths under _U1RX_ISR in BANK9

    None.

Critical Paths under _main in BANK10

    None.

Critical Paths under _U1RX_ISR in BANK10

    None.

Critical Paths under _main in BANK11

    None.

Critical Paths under _U1RX_ISR in BANK11

    None.

Critical Paths under _main in BANK12

    None.

Critical Paths under _U1RX_ISR in BANK12

    None.

Critical Paths under _main in BANK13

    None.

Critical Paths under _U1RX_ISR in BANK13

    None.

Critical Paths under _main in BANK14

    None.

Critical Paths under _U1RX_ISR in BANK14

    None.

Critical Paths under _main in BANK15

    None.

Critical Paths under _U1RX_ISR in BANK15

    None.

Critical Paths under _main in BANK16

    None.

Critical Paths under _U1RX_ISR in BANK16

    None.

Critical Paths under _main in BANK17

    None.

Critical Paths under _U1RX_ISR in BANK17

    None.

Critical Paths under _main in BANK18

    None.

Critical Paths under _U1RX_ISR in BANK18

    None.

Critical Paths under _main in BANK19

    None.

Critical Paths under _U1RX_ISR in BANK19

    None.

Critical Paths under _main in BANK20

    None.

Critical Paths under _U1RX_ISR in BANK20

    None.

Critical Paths under _main in BANK21

    None.

Critical Paths under _U1RX_ISR in BANK21

    None.

Critical Paths under _main in BANK22

    None.

Critical Paths under _U1RX_ISR in BANK22

    None.

Critical Paths under _main in BANK23

    None.

Critical Paths under _U1RX_ISR in BANK23

    None.

Critical Paths under _main in BANK24

    None.

Critical Paths under _U1RX_ISR in BANK24

    None.

Critical Paths under _main in BANK25

    None.

Critical Paths under _U1RX_ISR in BANK25

    None.

Critical Paths under _main in BANK26

    None.

Critical Paths under _U1RX_ISR in BANK26

    None.

Critical Paths under _main in BANK27

    None.

Critical Paths under _U1RX_ISR in BANK27

    None.

Critical Paths under _main in BANK28

    None.

Critical Paths under _U1RX_ISR in BANK28

    None.

Critical Paths under _main in BANK29

    None.

Critical Paths under _U1RX_ISR in BANK29

    None.

Critical Paths under _main in BANK30

    None.

Critical Paths under _U1RX_ISR in BANK30

    None.

Critical Paths under _main in BANK31

    None.

Critical Paths under _U1RX_ISR in BANK31

    None.

Call Graph Tables:

 ---------------------------------------------------------------------------------
 (Depth) Function   	        Calls       Base Space   Used Autos Params    Refs
 ---------------------------------------------------------------------------------
 (0) _main                                                 8     8      0    7328
                                             47 COMRAM     2     2      0
                                              0 BANK0      6     6      0
                  _SYSTEM_Initialize
                    _TMR0_StartTimer
                   _delay_is_expired
                        _delay_start
                        _send_answer
                       _send_request
               _state_is_frame_ready
                        _state_reset
 ---------------------------------------------------------------------------------
 (1) _state_reset                                          6     4      2     282
                                             13 COMRAM     6     4      2
 ---------------------------------------------------------------------------------
 (1) _state_is_frame_ready                                 2     0      2     211
                                             13 COMRAM     2     0      2
 ---------------------------------------------------------------------------------
 (1) _send_request                                         6     4      2    1383
                                             33 COMRAM     6     4      2
                             _prints
 ---------------------------------------------------------------------------------
 (1) _send_answer                                         14    12      2    4314
                                             33 COMRAM    14    12      2
                            ___lwdiv
                            ___lwmod
                          _get_digit
                             _prints
 ---------------------------------------------------------------------------------
 (2) _prints                                               2     0      2    1253
                                             31 COMRAM     2     0      2
                   _delay_is_expired
 ---------------------------------------------------------------------------------
 (3) _delay_is_expired                                    10     8      2     558
                                             21 COMRAM    10     8      2
                     _TMR0_ReadTimer
 ---------------------------------------------------------------------------------
 (2) _get_digit                                            2     2      0     164
                                             13 COMRAM     2     2      0
 ---------------------------------------------------------------------------------
 (2) ___lwmod                                              5     1      4    1312
                                             20 COMRAM     5     1      4
                            ___lwdiv (ARG)
 ---------------------------------------------------------------------------------
 (2) ___lwdiv                                              7     3      4     961
                                             13 COMRAM     7     3      4
 ---------------------------------------------------------------------------------
 (1) _delay_start                                          4     0      4     485
                                             21 COMRAM     4     0      4
                     _TMR0_ReadTimer
 ---------------------------------------------------------------------------------
 (4) _TMR0_ReadTimer                                       8     6      2     102
                                             13 COMRAM     8     6      2
 ---------------------------------------------------------------------------------
 (1) _TMR0_StartTimer                                      0     0      0       0
 ---------------------------------------------------------------------------------
 (1) _SYSTEM_Initialize                                    0     0      0       0
              _OSCILLATOR_Initialize
             _PIN_MANAGER_Initialize
                     _PMD_Initialize
                    _TMR0_Initialize
 ---------------------------------------------------------------------------------
 (2) _TMR0_Initialize                                      2     2      0       0
                                             13 COMRAM     2     2      0
 ---------------------------------------------------------------------------------
 (2) _PMD_Initialize                                       0     0      0       0
 ---------------------------------------------------------------------------------
 (2) _PIN_MANAGER_Initialize                               0     0      0       0
 ---------------------------------------------------------------------------------
 (2) _OSCILLATOR_Initialize                                0     0      0       0
 ---------------------------------------------------------------------------------
 Estimated maximum stack depth 4
 ---------------------------------------------------------------------------------
 (Depth) Function   	        Calls       Base Space   Used Autos Params    Refs
 ---------------------------------------------------------------------------------
 (5) _U1RX_ISR                                             1     1      0     869
                                             12 COMRAM     1     1      0
                      _state_rx_byte
                      i2_delay_start
 ---------------------------------------------------------------------------------
 (6) i2_delay_start                                        4     0      4     265
                                              8 COMRAM     4     0      4
                   i2_TMR0_ReadTimer
 ---------------------------------------------------------------------------------
 (7) i2_TMR0_ReadTimer                                     8     6      2     102
                                              0 COMRAM     8     6      2
 ---------------------------------------------------------------------------------
 (6) _state_rx_byte                                        4     1      3     570
                                              0 COMRAM     4     1      3
 ---------------------------------------------------------------------------------
 Estimated maximum stack depth 7
 ---------------------------------------------------------------------------------

 Call Graph Graphs:

 _main (ROOT)
   _SYSTEM_Initialize
     _OSCILLATOR_Initialize
     _PIN_MANAGER_Initialize
     _PMD_Initialize
     _TMR0_Initialize
   _TMR0_StartTimer
   _delay_is_expired
     _TMR0_ReadTimer
   _delay_start
     _TMR0_ReadTimer
   _send_answer
     ___lwdiv
     ___lwmod
       ___lwdiv (ARG)
     _get_digit
     _prints
       _delay_is_expired
         _TMR0_ReadTimer
   _send_request
     _prints
       _delay_is_expired
         _TMR0_ReadTimer
   _state_is_frame_ready
   _state_reset

 _U1RX_ISR (ROOT)
   _state_rx_byte
   i2_delay_start
     i2_TMR0_ReadTimer

 Address spaces:
Name               Size   Autos  Total    Cost      Usage
BIGRAM            1FFF      0       0      69        0.0%
EEDATA             400      0       0       0        0.0%
BITBANK31          100      0       0      67        0.0%
BANK31             100      0       0      68        0.0%
BITBANK30          100      0       0      65        0.0%
BANK30             100      0       0      66        0.0%
BITBANK29          100      0       0      63        0.0%
BANK29             100      0       0      64        0.0%
BITBANK28          100      0       0      61        0.0%
BANK28             100      0       0      62        0.0%
BITBANK27          100      0       0      59        0.0%
BANK27             100      0       0      60        0.0%
BITBANK26          100      0       0      56        0.0%
BANK26             100      0       0      57        0.0%
BITBANK25          100      0       0      54        0.0%
BANK25             100      0       0      55        0.0%
BITBANK24          100      0       0      52        0.0%
BANK24             100      0       0      53        0.0%
BITBANK23          100      0       0      50        0.0%
BANK23             100      0       0      51        0.0%
BITBANK22          100      0       0      48        0.0%
BANK22             100      0       0      49        0.0%
BITBANK21          100      0       0      46        0.0%
BANK21             100      0       0      47        0.0%
BITBANK20          100      0       0      44        0.0%
BANK20             100      0       0      45        0.0%
BITBANK19          100      0       0      42        0.0%
BANK19             100      0       0      43        0.0%
BITBANK18          100      0       0      40        0.0%
BANK18             100      0       0      41        0.0%
BITBANK17          100      0       0      38        0.0%
BANK17             100      0       0      39        0.0%
BITBANK16          100      0       0      36        0.0%
BANK16             100      0       0      37        0.0%
BITBANK15          100      0       0      34        0.0%
BANK15             100      0       0      35        0.0%
BITBANK14          100      0       0      32        0.0%
BANK14             100      0       0      33        0.0%
BITBANK13          100      0       0      30        0.0%
BANK13             100      0       0      31        0.0%
BITBANK12          100      0       0      28        0.0%
BANK12             100      0       0      29        0.0%
BITBANK11          100      0       0      26        0.0%
BANK11             100      0       0      27        0.0%
BITBANK10          100      0       0      24        0.0%
BANK10             100      0       0      25        0.0%
BITBANK9           100      0       0      22        0.0%
BANK9              100      0       0      23        0.0%
BITBANK8           100      0       0      20        0.0%
BANK8              100      0       0      21        0.0%
BITBANK7           100      0       0      18        0.0%
BANK7              100      0       0      19        0.0%
BITBANK6           100      0       0      16        0.0%
BANK6              100      0       0      17        0.0%
BITBANK5           100      0       0      14        0.0%
BANK5              100      0       0      15        0.0%
BITBANK4           100      0       0      12        0.0%
BANK4              100      0       0      13        0.0%
BITBANK3           100      0       0      10        0.0%
BANK3              100      0       0      11        0.0%
BITBANK2           100      0       0       8        0.0%
BANK2              100      0       0       9        0.0%
BITBANK1           100      0       0       6        0.0%
BANK1              100      0       0       7        0.0%
BITBANK0            A0      0       0       4        0.0%
BANK0               A0      6       F       5        9.4%
BITCOMRAM           5F      0       0       0        0.0%
COMRAM              5F     31      51       1       85.3%
BITSFR_8             0      0       0     200        0.0%
SFR_8                0      0       0     200        0.0%
BITSFR_7             0      0       0     200        0.0%
SFR_7                0      0       0     200        0.0%
BITSFR_6             0      0       0     200        0.0%
SFR_6                0      0       0     200        0.0%
BITSFR_5             0      0       0     200        0.0%
SFR_5                0      0       0     200        0.0%
BITSFR_4             0      0       0     200        0.0%
SFR_4                0      0       0     200        0.0%
BITSFR_3             0      0       0     200        0.0%
SFR_3                0      0       0     200        0.0%
BITSFR_2             0      0       0     200        0.0%
SFR_2                0      0       0     200        0.0%
BITSFR_1             0      0       0     200        0.0%
SFR_1                0      0       0     200        0.0%
BITSFR               0      0       0     200        0.0%
SFR                  0      0       0     200        0.0%
STACK                0      0       0       2        0.0%
NULL                 0      0       0       0        0.0%
ABS                  0      0      60      58        0.0%
DATA                 0      0      60       3        0.0%
CODE                 0      0       0       0        0.0%


Microchip Technology PIC18 Macro Assembler V2.20 build 20200408173844 
Symbol Table                                                                                   Wed Sep 16 16:48:34 2020

                             l80 260E                               l74 271E  
                             l93 23FA                               l97 2476  
                    get_digit@ch 000F                      _state_reset 24EC  
                            l100 26D2                              l101 26E6  
                            l102 26E8                              l112 22D8  
                            l107 2854                              l212 254E  
                            l215 2836                              l312 287E  
                            l315 286C                              l318 27D2  
                            l335 2780                              l272 2666  
                            l344 27F4                              l338 2886  
                            l854 24EA                              l847 24E2  
                            l864 25B2                              l857 25AA  
                            u900 23F6                              u901 23F2  
                            u910 240A                              u911 2406  
                            u920 2434                              u930 2466  
                            u940 2476                              u941 2472  
                            u950 26CC                              u951 26C8  
                            u927 2426                              u960 26E2  
                            u880 260C                              u961 26DE  
                            u881 2606                              u937 2458  
                            u970 2492                              u890 260E  
                            u971 248E                              u980 24B0  
                            u981 24AC                              u990 24CC  
                            u991 24C8                   send_answer@cmd 0025  
        __size_of_PMD_Initialize 0024                   send_answer@num 002E  
                            wreg 003FE8                             l2011 22DE  
                           l2021 22F0                             l2013 22E0  
                           l2031 22FE                             l2023 22F4  
                           l2015 22E4                             l2041 230A  
                           l2033 2300                             l2025 22F6  
                           l2017 22E6                             l2009 22DA  
                           l2051 2320                             l2043 230E  
                           l2035 2302                             l2027 22F8  
                           l2019 22EC                             l2061 232E  
                           l2053 2322                             l2045 2312  
                           l2037 2304                             l2029 22FC  
                           l2071 2382                             l2063 232E  
                           l2055 2324                             l2047 2314  
                           l2039 2306                             l2073 239E  
                           l2065 2346                             l2057 2328  
                           l2049 231E                             l2075 23BA  
                           l2067 2352                             l2059 232C  
                           l2077 23C6                             l2069 2366  
                           l1811 2622                             l1803 2610  
                           l1821 265A                             l1813 2626  
                           l1805 261C                             l1901 21C6  
                           l1831 2856                             l1823 265C  
                           l1815 2628                             l1807 261E  
                           l1911 2236                             l1903 21E6  
                           l1825 265E                             l1817 2656  
                           l1809 2620                             l1841 277C  
                           l1833 2756                             l1921 22C0  
                           l1913 223A                             l1905 2206  
                           l1827 2660                             l1819 2658  
                           l1835 275A                             l1931 287A  
                           l1771 27D4                             l1851 24A2  
                           l1843 2478                             l1923 22C4  
                           l1915 224A                             l1907 2226  
                           l1829 27B0                             l1837 2760  
                           l1933 2884                             l1773 27E0  
                           l1861 24D6                             l1853 24B0  
                           l1845 2480                             l1781 25C0  
                           l1925 22C8                             l1917 2278  
                           l1909 222A                             l1941 24FC  
                           l1839 2778                             l1775 27EC  
                           l1863 24DC                             l1855 24B6  
                           l1847 2492                             l1871 2572  
                           l1791 2438                             l1927 22CC  
                           l1919 22A6                             l1935 2818  
                           l1951 252E                             l1943 250A  
                           l1929 286E                             l1857 24CC  
                           l1849 249A                             l1873 2580  
                           l1865 2550                             l1793 243C  
                           l1785 23DA                             l1953 2532  
                           l1891 2706                             l1859 24D4  
                           l1875 2596                             l1867 2562  
                           l1795 26B6                             l1779 25B4  
                           l1787 23DA                             l1939 24EC  
                           l1877 259E                             l1869 256A  
                           l1797 26CC                             l1789 240A  
                           l1949 2512                             l1879 25A4  
                           l1799 26E2                             l1895 2838  
                           l1889 26EA                             l1897 2848  
                           l1899 21BE                             STR_1 2015  
                           STR_2 201B                             STR_3 2017  
                           STR_4 2019                             u1000 2562  
                           u1001 255E                             u1010 2580  
                           u1011 257C                             u1020 2596  
                           u1100 2382                             u1021 2592  
                           u1101 237E                             u1110 239E  
                           u1031 2230                             u1111 239A  
                           u1040 2834                             u1120 23BA  
                           u1041 282E                             u1121 23B6  
                           u1050 254E                             u1051 254A  
                           u1046 2836                             u1137 2338  
                           _LATA 003FBA                             _LATB 003FBB  
                           _LATC 003FBC                             _PMD0 0039C0  
                           _PMD1 0039C1                             _PMD2 0039C2  
                           _PMD3 0039C3                             _PMD4 0039C4  
                           _PMD5 0039C5                             _PMD6 0039C6  
                           _PMD7 0039C7                             i2l74 2754  
                           _WPUA 003A41                             _WPUB 003A51  
                           _WPUC 003A61                             _WPUE 003A81  
                           _main 22DA                  _TMR0_StartTimer 2884  
                           fsr1h 003FE2                             fsr2h 003FDA  
                           indf1 003FE7                             indf2 003FDF  
                           fsr1l 003FE1                             fsr2l 003FD9  
                    main@timeout 006B               send_request@F15375 004C  
                           prodh 003FF4                             prodl 003FF3  
                           start 00AE                     ___param_bank 000000  
                  _state_rx_byte 201E          __end_of_TMR0_Initialize 2782  
 __size_of_OSCILLATOR_Initialize 0018    __end_of_OSCILLATOR_Initialize 286E  
               __end_of_U1RX_ISR 27B0                            ?_main 0001  
      TMR0_ReadTimer@readValHigh 0015                  __end_of___lwdiv 24EC  
                          _U1RXB 003DE8                  __end_of___lwmod 25B4  
                          _U1TXB 003DEA                            i2l150 27AE  
                          i2l207 21BC                            i2l344 2816  
                          _OSCEN 0039DD                            _TMR0H 003FB7  
                          _TMR0L 003FB6                            _TRISA 003FC2  
                          _TRISB 003FC3                            _TRISC 003FC4  
                 get_digit@digit 000E                            _delay 0048  
                          tablat 003FF5        __size_ofi2_TMR0_ReadTimer 0022  
                          status 003FD8                   ?_state_rx_byte 0001  
                 send_request@st 0022                  __initialization 2668  
                   __end_of_main 23DA             __size_of_delay_start 0036  
           _state_is_frame_ready 2818                 _delay_is_expired 25B4  
                         ??_main 0030                    __activetblptr 000003  
         __size_ofi2_delay_start 0036          __end_of_TMR0_StartTimer 2888  
                   ?_send_answer 0022                send_answer@F15380 0060  
                         _ANSELA 003A40                           _ANSELB 003A50  
                         _ANSELC 003A60                           _T0CON0 003FB8  
                         _T0CON1 003FB9                           _RB1I2C 003A5A  
                         _RB2I2C 003A5B                           _RC3I2C 003A6A  
                         _RC4I2C 003A6B                           _U1BRGH 003DF6  
                         _U1BRGL 003DF5                           _RB2PPS 003A0A  
                         _ODCONA 003A42                           _ODCONB 003A52  
                         _RC6PPS 003A16                           _ODCONC 003A62  
                         i2l1601 207E                           i2l1611 210C  
                         i2l1603 209C                           i2l1621 218A  
                         i2l1613 212A                           i2l1605 20BA  
                         i2l1623 2198                           i2l1615 2148  
                         i2l1607 20D8                           _U1RXIF 01CD1B  
                         i2l1625 21AC                           i2l1617 215A  
                         i2l1609 20FA                           i2l1619 2178  
                         i2l1591 201E                           i2l1595 203C  
                         i2l1597 204E                           i2l1599 2062  
                         _U1TXIF 01CD1C                           i2l1881 27F6  
                         i2l1883 2802                           i2l1955 2720  
                         i2l1971 278A                           i2l1885 280E  
                         i2l1957 273C                           i2l1969 2784  
                         _INLVLA 003A44                           _INLVLB 003A54  
                         _INLVLC 003A64                           _INLVLE 003A84  
                         _OSCFRQ 0039DF                     state_reset@i 0012  
               __end_of_handlers 2015            ?_state_is_frame_ready 000E  
                      ??___lwdiv 0012                        ??___lwmod 0019  
               ?_TMR0_Initialize 0001                           clear_0 2690  
                         clear_1 269C                           _prints 23DA  
                 _PMD_Initialize 27B0                     __pdataCOMRAM 004C  
                   __mediumconst 0000                           tblptrh 003FF7  
                         tblptrl 003FF6                           tblptru 003FF8  
              _SYSTEM_Initialize 286E                       __accesstop 0060  
        __end_of__initialization 26AE               ?_SYSTEM_Initialize 0001  
                      ?_U1RX_ISR 0001                  ??_state_rx_byte 0004  
                  ___rparam_used 000001                  send_request@cmd 0024  
                  i2_delay_start 2720                   __pcstackCOMRAM 0001  
            ??_SYSTEM_Initialize 0010                   ivt0x8_undefint 00AC  
        __size_of_TMR0_ReadTimer 0022                     ?_state_reset 000E  
                   U1RX_ISR@znak 000D           __end_of_PMD_Initialize 27D4  
             __size_of_get_digit 0036                 ?_TMR0_StartTimer 0001  
      __end_of_SYSTEM_Initialize 2880                       __pbssBANK0 0060  
               i2_TMR0_ReadTimer 27F6                       __pnvCOMRAM 0050  
                     ??_U1RX_ISR 000D                          IVTBASEH 003FD6  
                        IVTBASEL 003FD5                          IVTBASEU 003FD7  
                 ?i2_delay_start 0009           ??_state_is_frame_ready 0010  
                ?_PMD_Initialize 0001                          ?_prints 0020  
                  ?_send_request 0022                   printnum@F15422 0032  
                        _U1RXPPS 003AE5                          _OSCCON1 0039D9  
                        _OSCCON3 0039DB                          i2u70_40 204E  
                        i2u70_41 204A                          _OSCTUNE 0039DE  
                        i2u71_40 207E                          i2u71_41 207A  
                        i2u72_40 209C                          i2u72_41 2098  
                        i2u73_40 20BA                          i2u73_41 20B6  
                        i2u74_40 20D8                          i2u74_41 20D4  
                        i2u75_40 212A                          i2u75_41 2126  
                        i2u76_40 2148                          i2u76_41 2144  
                        i2u77_40 2178                          i2u69_40 2038  
                        i2u77_41 2174                          i2u69_41 2034  
                        i2u78_40 218A                          i2u78_41 2186  
                        _SLRCONA 003A43                          _SLRCONB 003A53  
                        _SLRCONC 003A63         __end_of_delay_is_expired 2610  
           __size_of_send_answer 011C                          _Handler 003A  
                  state_reset@st 000E                          __Hparam 0000  
                        __Lparam 0000                __end_of_get_digit 26EA  
                        ___lwdiv 2478                          ___lwmod 2550  
                   __psmallconst 2000                          __pcinit 2668  
                        __ramtop 2000            delay_is_expired@delay 0016  
                 ??_send_request 0024                          __ptext0 22DA  
                        __ptext1 24EC                          __ptext2 2818  
                        __ptext3 2838                          __ptext4 21BE  
                        __ptext5 23DA                          __ptext6 25B4  
                        __ptext7 26B4                          __ptext8 2550  
                        __ptext9 2478                  __size_of_prints 009E  
          _OSCILLATOR_Initialize 2856           state_is_frame_ready@st 000E  
       ??_PIN_MANAGER_Initialize 000E       __size_of_SYSTEM_Initialize 0012  
           end_of_initialization 26AE                  ??i2_delay_start 000D  
                  ??_delay_start 001A            TMR0_ReadTimer@readVal 0012  
                        postdec1 003FE5                          postdec2 003FDD  
                        postinc0 003FEE                          postinc1 003FE6  
                        postinc2 003FDE                   _TMR0_ReadTimer 27D4  
     i2TMR0_ReadTimer@readValLow 0007             __size_of_state_reset 0064  
                      _TRISBbits 003FC3                        _TRISCbits 003FC4  
                  send_answer@st 0022                __size_of_U1RX_ISR 002C  
           _timer0ReloadVal16bit 0050           __end_of_TMR0_ReadTimer 27F6  
            __end_of_delay_start 2720                    __pidataCOMRAM 2880  
       __end_ofi2_TMR0_ReadTimer 2818      i2TMR0_ReadTimer@readValHigh 0008  
         ?_OSCILLATOR_Initialize 0001                   __end_of_prints 2478  
            start_initialization 2668         __size_of_TMR0_Initialize 002C  
__size_of_PIN_MANAGER_Initialize 0058                       ivt0x8_base 0008  
           __end_of_send_request 2856            __end_of_state_rx_byte 21BE  
               ??_PMD_Initialize 000E                  ?_TMR0_ReadTimer 000E  
            delay_is_expired@now 001E                         ??_prints 0022  
                state_rx_byte@ch 0003                  state_rx_byte@st 0001  
                    __pbssCOMRAM 0032                    __pcstackBANK0 0069  
               delay_start@delay 0016                 delay_start@value 0018  
              ?_delay_is_expired 0016               ??_delay_is_expired 0018  
       __size_of_TMR0_StartTimer 0004          i2TMR0_ReadTimer@readVal 0005  
                    _delay_start 26EA                 ___lwdiv@dividend 000E  
         _PIN_MANAGER_Initialize 2610                         ?___lwdiv 000E  
  __size_of_state_is_frame_ready 0020                         ?___lwmod 0015  
                      _get_digit 26B4                      __smallconst 2000  
                  ??_send_answer 0024                 ___lwdiv@quotient 0013  
                       _U1CTSPPS 003AE6                ??_TMR0_Initialize 000E  
                       _LATBbits 003FBB                         _LATCbits 003FBC  
                       _U1RX_ISR 2784                         _PIE3bits 003993  
                       _PIR3bits 0039A3                _handler_command_a 000000  
              _handler_command_b 000000                _handler_command_d 000000  
              _handler_command_s 000000                       ?_get_digit 0001  
       TMR0_ReadTimer@readValLow 0014                      _INTCON0bits 003FD2  
          __size_of_send_request 001E                        copy_data0 267C  
            __end_of_send_answer 22DA                         __Hrparam 0000  
          __end_ofi2_delay_start 2756                         __Lrparam 0000  
        ??_OSCILLATOR_Initialize 000E                ??_TMR0_StartTimer 000E  
                  ??_state_reset 0010                 __size_of___lwdiv 0074  
               __size_of___lwmod 0064                ?i2_TMR0_ReadTimer 0001  
                     _ANSELBbits 003A50                       _ANSELCbits 003A60  
                   _send_request 2838               ??i2_TMR0_ReadTimer 0003  
                     _T0CON0bits 003FB8                         __pivt0x8 0008  
                ___lwdiv@divisor 0010                  ___lwdiv@counter 0012  
                       __ptext10 26EA                         __ptext11 27D4  
                       __ptext20 27F6                         __ptext12 2884  
                       __ptext21 201E                         __ptext13 286E  
                       __ptext14 2756                         __ptext15 27B0  
                       __ptext16 2610                         __ptext17 2856  
                       __ptext18 2784                         __ptext19 2720  
                       _handlers 2001                       _U1CON0bits 003DF2  
                     _U1CON1bits 003DF3                       _U1CON2bits 003DF4  
                  __size_of_main 0100                 ??_TMR0_ReadTimer 0010  
                       _rx_state 003E                      ??_get_digit 000E  
                      prints@str 0020              __end_of_state_reset 2550  
                    _send_answer 21BE                         intlevel2 0000  
               ___lwmod@dividend 0015          ?_PIN_MANAGER_Initialize 0001  
                   ?_delay_start 0016        __size_of_delay_is_expired 005C  
                ___lwmod@divisor 0017                  _TMR0_Initialize 2756  
                ___lwmod@counter 0019           __size_of_state_rx_byte 01A0  
   __end_of_state_is_frame_ready 2838   __end_of_PIN_MANAGER_Initialize 2668  
             i2delay_start@delay 0009               i2delay_start@value 000B  
